(lp1
(lp2
(lp3
F0
aF0
aF0
aF0
aF0
aa(lp4
F0
aF0
aF0
aF0
aF0
aa(lp5
F0
aF0
aF0
aF0
aF0
aa(lp6
F0
aF0
aF0
aF0
aF0
aa(lp7
F0
aF0
aF0
aF0
aF0
aa(lp8
F0
aF0
aF0
aF0
aF0
aa(lp9
F0
aF0
aF0
aF0
aF0
aa(lp10
F0
aF0
aF0
aF0
aF0
aa(lp11
F0
aF0
aF0
aF0
aF0
aa(lp12
F0
aF0
aF0
aF0
aF0
aa(lp13
F0
aF0
aF0
aF0
aF0
aa(lp14
F0
aF0
aF0
aF0
aF0
aa(lp15
F0
aF0
aF0
aF0
aF0
aa(lp16
F0
aF0
aF0
aF0
aF0
aa(lp17
F0
aF0
aF0
aF0
aF0
aa(lp18
F0
aF0
aF0
aF0
aF0
aa(lp19
F0
aF0
aF0
aF0
aF0
aa(lp20
F0
aF0
aF0
aF0
aF0
aa(lp21
F0
aF0
aF0
aF0
aF0
aa(lp22
F0
aF0
aF0
aF0
aF0
aa(lp23
F0
aF0
aF0
aF0
aF0
aa(lp24
F0
aF0
aF0
aF0
aF0
aa(lp25
F0
aF0
aF0
aF0
aF0
aa(lp26
F0
aF0
aF0
aF0
aF0
aa(lp27
F0
aF0
aF0
aF0
aF0
aa(lp28
F0
aF0
aF0
aF0
aF0
aa(lp29
F0
aF0
aF0
aF0
aF0
aa(lp30
F0
aF0
aF0
aF0
aF0
aa(lp31
F0
aF0
aF0
aF0
aF0
aa(lp32
F0
aF0
aF0
aF0
aF0
aa(lp33
F0
aF0
aF0
aF0
aF0
aa(lp34
F0
aF0
aF0
aF0
aF0
aa(lp35
F0
aF0
aF0
aF0
aF0
aa(lp36
F0
aF0
aF0
aF0
aF0
aa(lp37
F0
aF0
aF0
aF0
aF0
aa(lp38
F0
aF0
aF0
aF0
aF0
aa(lp39
F0
aF0
aF0
aF0
aF0
aa(lp40
F0
aF0
aF0
aF0
aF0
aa(lp41
F0
aF0
aF0
aF0
aF0
aa(lp42
F0
aF0
aF0
aF0
aF0
aa(lp43
F0
aF0
aF0
aF0
aF0
aa(lp44
F0
aF0
aF0
aF0
aF0
aa(lp45
F0
aF0
aF0
aF0
aF0
aa(lp46
F0
aF0
aF0
aF0
aF0
aa(lp47
F0
aF0
aF0
aF0
aF0
aa(lp48
F0
aF0
aF0
aF0
aF0
aa(lp49
F0
aF0
aF0
aF0
aF0
aa(lp50
F1
aF0
aF0
aF1
aF0
aa(lp51
F0
aF0
aF0
aF0
aF0
aa(lp52
F0
aF0
aF0
aF0
aF0
aa(lp53
F0
aF0
aF0
aF0
aF0
aa(lp54
F0
aF0
aF0
aF0
aF0
aa(lp55
F0
aF0
aF0
aF0
aF0
aa(lp56
F0
aF0
aF0
aF0
aF0
aa(lp57
F0
aF0
aF0
aF0
aF0
aa(lp58
F0
aF0
aF0
aF0
aF0
aa(lp59
F0
aF0
aF0
aF0
aF0
aa(lp60
F0
aF0
aF0
aF0
aF0
aa(lp61
F0
aF0
aF0
aF0
aF0
aa(lp62
F0
aF0
aF0
aF0
aF0
aa(lp63
F0
aF0
aF0
aF0
aF0
aa(lp64
F0
aF0
aF0
aF0
aF0
aa(lp65
F0
aF0
aF0
aF0
aF0
aa(lp66
F0
aF0
aF0
aF0
aF0
aa(lp67
F0
aF0
aF0
aF0
aF0
aa(lp68
F0
aF0
aF0
aF0
aF0
aa(lp69
F0
aF0
aF0
aF0
aF0
aa(lp70
F0
aF0
aF0
aF0
aF0
aa(lp71
F0
aF0
aF0
aF0
aF0
aa(lp72
F0
aF0
aF0
aF0
aF0
aa(lp73
F0
aF0
aF0
aF0
aF0
aa(lp74
F0
aF0
aF0
aF0
aF0
aa(lp75
F0
aF0
aF0
aF0
aF0
aa(lp76
F0
aF0
aF0
aF0
aF0
aa(lp77
F0
aF0
aF0
aF0
aF0
aa(lp78
F0
aF0
aF0
aF0
aF0
aa(lp79
F0
aF0
aF0
aF0
aF0
aa(lp80
F0
aF0
aF0
aF0
aF0
aa(lp81
F0
aF0
aF0
aF0
aF0
aa(lp82
F0
aF0
aF0
aF0
aF0
aa(lp83
F0
aF0
aF0
aF0
aF0
aa(lp84
F0
aF0
aF0
aF0
aF0
aa(lp85
F0
aF0
aF0
aF0
aF0
aa(lp86
F0
aF0
aF0
aF0
aF0
aa(lp87
F0
aF0
aF0
aF0
aF0
aa(lp88
F0
aF0
aF0
aF0
aF0
aaa(lp89
(lp90
F0
aF0
aF0
aF0
aF0
aa(lp91
F0
aF0
aF0
aF0
aF0
aa(lp92
F0
aF0
aF0
aF0
aF0
aa(lp93
F0
aF0
aF0
aF0
aF0
aa(lp94
F0
aF0
aF0
aF0
aF0
aa(lp95
F0
aF0
aF0
aF0
aF0
aa(lp96
F0
aF0
aF0
aF0
aF0
aa(lp97
F0
aF0
aF0
aF0
aF0
aa(lp98
F0
aF0
aF0
aF0
aF0
aa(lp99
F0
aF0
aF0
aF0
aF0
aa(lp100
F0
aF0
aF0
aF0
aF0
aa(lp101
F1
aF0
aF0
aF1
aF0
aa(lp102
F0
aF0
aF0
aF0
aF0
aa(lp103
F0
aF0
aF0
aF0
aF0
aa(lp104
F0
aF0
aF0
aF0
aF0
aa(lp105
F0
aF0
aF0
aF0
aF0
aa(lp106
F0
aF0
aF0
aF0
aF0
aa(lp107
F0
aF0
aF0
aF0
aF0
aa(lp108
F0
aF0
aF0
aF0
aF0
aa(lp109
F0
aF0
aF0
aF0
aF0
aa(lp110
F0
aF0
aF0
aF0
aF0
aa(lp111
F0
aF0
aF0
aF0
aF0
aa(lp112
F0
aF0
aF0
aF0
aF0
aa(lp113
F0
aF0
aF0
aF0
aF0
aa(lp114
F0
aF0
aF0
aF0
aF0
aa(lp115
F0
aF0
aF0
aF0
aF0
aa(lp116
F0
aF0
aF0
aF0
aF0
aa(lp117
F0
aF0
aF0
aF0
aF0
aa(lp118
F0
aF0
aF0
aF0
aF0
aa(lp119
F0
aF0
aF0
aF0
aF0
aa(lp120
F0
aF0
aF0
aF0
aF0
aa(lp121
F0
aF0
aF0
aF0
aF0
aa(lp122
F0
aF0
aF0
aF0
aF0
aa(lp123
F0
aF0
aF0
aF0
aF0
aa(lp124
F0
aF0
aF0
aF0
aF0
aa(lp125
F0
aF0
aF0
aF0
aF0
aa(lp126
F0
aF0
aF0
aF0
aF0
aa(lp127
F0
aF0
aF0
aF0
aF0
aa(lp128
F0
aF0
aF0
aF0
aF0
aa(lp129
F0
aF0
aF0
aF0
aF0
aa(lp130
F0
aF0
aF0
aF0
aF0
aa(lp131
F0
aF0
aF0
aF0
aF0
aa(lp132
F0
aF0
aF0
aF0
aF0
aa(lp133
F0
aF0
aF0
aF0
aF0
aa(lp134
F0
aF0
aF0
aF0
aF0
aa(lp135
F0
aF0
aF0
aF0
aF0
aa(lp136
F0
aF0
aF0
aF0
aF0
aa(lp137
F0
aF0
aF0
aF0
aF0
aa(lp138
F0
aF0
aF0
aF0
aF0
aa(lp139
F0
aF0
aF0
aF0
aF0
aa(lp140
F0
aF0
aF0
aF0
aF0
aa(lp141
F0
aF0
aF0
aF0
aF0
aa(lp142
F0
aF0
aF0
aF0
aF0
aa(lp143
F0
aF0
aF0
aF0
aF0
aa(lp144
F0
aF0
aF0
aF0
aF0
aa(lp145
F0
aF0
aF0
aF0
aF0
aa(lp146
F0
aF0
aF0
aF0
aF0
aa(lp147
F0
aF0
aF0
aF0
aF0
aa(lp148
F0
aF0
aF0
aF0
aF0
aa(lp149
F0
aF0
aF0
aF0
aF0
aa(lp150
F0
aF0
aF0
aF0
aF0
aa(lp151
F0
aF0
aF0
aF0
aF0
aa(lp152
F0
aF0
aF0
aF0
aF0
aa(lp153
F0
aF0
aF0
aF0
aF0
aa(lp154
F0
aF0
aF0
aF0
aF0
aa(lp155
F0
aF0
aF0
aF0
aF0
aa(lp156
F0
aF0
aF0
aF0
aF0
aa(lp157
F0
aF0
aF0
aF0
aF0
aa(lp158
F0
aF0
aF0
aF0
aF0
aa(lp159
F0
aF0
aF0
aF0
aF0
aa(lp160
F0
aF0
aF0
aF0
aF0
aa(lp161
F0
aF0
aF0
aF0
aF0
aa(lp162
F0
aF0
aF0
aF0
aF0
aa(lp163
F0
aF0
aF0
aF0
aF0
aa(lp164
F0
aF0
aF0
aF0
aF0
aa(lp165
F0
aF0
aF0
aF0
aF0
aa(lp166
F0
aF0
aF0
aF0
aF0
aa(lp167
F0
aF0
aF0
aF0
aF0
aa(lp168
F0
aF0
aF0
aF0
aF0
aa(lp169
F0
aF0
aF0
aF0
aF0
aa(lp170
F0
aF0
aF0
aF0
aF0
aa(lp171
F0
aF0
aF0
aF0
aF0
aa(lp172
F0
aF0
aF0
aF0
aF0
aa(lp173
F0
aF0
aF0
aF0
aF0
aa(lp174
F0
aF0
aF0
aF0
aF0
aa(lp175
F0
aF0
aF0
aF0
aF0
aaa(lp176
(lp177
F0
aF0
aF0
aF0
aF0
aa(lp178
F0
aF0
aF0
aF0
aF0
aa(lp179
F0
aF0
aF0
aF0
aF0
aa(lp180
F0
aF0
aF0
aF0
aF0
aa(lp181
F0
aF0
aF0
aF0
aF0
aa(lp182
F0
aF0
aF0
aF0
aF0
aa(lp183
F0
aF0
aF0
aF0
aF0
aa(lp184
F0
aF0
aF0
aF0
aF0
aa(lp185
F0
aF0
aF0
aF0
aF0
aa(lp186
F0
aF0
aF0
aF0
aF0
aa(lp187
F0
aF0
aF0
aF0
aF0
aa(lp188
F0
aF0
aF0
aF0
aF0
aa(lp189
F0
aF0
aF0
aF0
aF0
aa(lp190
F0
aF0
aF0
aF0
aF0
aa(lp191
F0
aF0
aF0
aF0
aF0
aa(lp192
F0
aF0
aF0
aF0
aF0
aa(lp193
F0
aF0
aF0
aF0
aF0
aa(lp194
F0
aF0
aF0
aF0
aF0
aa(lp195
F1
aF0
aF0
aF1
aF0
aa(lp196
F0
aF0
aF0
aF0
aF0
aa(lp197
F0
aF0
aF0
aF0
aF0
aa(lp198
F0
aF0
aF0
aF0
aF0
aa(lp199
F0
aF0
aF0
aF0
aF0
aa(lp200
F0
aF0
aF0
aF0
aF0
aa(lp201
F0
aF0
aF0
aF0
aF0
aa(lp202
F0
aF0
aF0
aF0
aF0
aa(lp203
F0
aF0
aF0
aF0
aF0
aa(lp204
F0
aF0
aF0
aF0
aF0
aa(lp205
F0
aF0
aF0
aF0
aF0
aa(lp206
F0
aF0
aF0
aF0
aF0
aa(lp207
F0
aF0
aF0
aF0
aF0
aa(lp208
F0
aF0
aF0
aF0
aF0
aa(lp209
F0
aF0
aF0
aF0
aF0
aa(lp210
F0
aF0
aF0
aF0
aF0
aa(lp211
F0
aF0
aF0
aF0
aF0
aa(lp212
F0
aF0
aF0
aF0
aF0
aa(lp213
F0
aF0
aF0
aF0
aF0
aa(lp214
F0
aF0
aF0
aF0
aF0
aa(lp215
F0
aF0
aF0
aF0
aF0
aa(lp216
F0
aF0
aF0
aF0
aF0
aa(lp217
F0
aF0
aF0
aF0
aF0
aa(lp218
F0
aF0
aF0
aF0
aF0
aa(lp219
F0
aF0
aF0
aF0
aF0
aa(lp220
F0
aF0
aF0
aF0
aF0
aa(lp221
F0
aF0
aF0
aF0
aF0
aa(lp222
F0
aF0
aF0
aF0
aF0
aa(lp223
F0
aF0
aF0
aF0
aF0
aa(lp224
F0
aF0
aF0
aF0
aF0
aa(lp225
F0
aF0
aF0
aF0
aF0
aa(lp226
F0
aF0
aF0
aF0
aF0
aa(lp227
F0
aF0
aF0
aF0
aF0
aa(lp228
F0
aF0
aF0
aF0
aF0
aa(lp229
F0
aF0
aF0
aF0
aF0
aa(lp230
F0
aF0
aF0
aF0
aF0
aa(lp231
F0
aF0
aF0
aF0
aF0
aa(lp232
F0
aF0
aF0
aF0
aF0
aa(lp233
F0
aF0
aF0
aF0
aF0
aa(lp234
F0
aF0
aF0
aF0
aF0
aa(lp235
F0
aF0
aF0
aF0
aF0
aa(lp236
F0
aF0
aF0
aF0
aF0
aa(lp237
F0
aF0
aF0
aF0
aF0
aa(lp238
F0
aF0
aF0
aF0
aF0
aa(lp239
F0
aF0
aF0
aF0
aF0
aa(lp240
F0
aF0
aF0
aF0
aF0
aa(lp241
F0
aF0
aF0
aF0
aF0
aa(lp242
F0
aF0
aF0
aF0
aF0
aa(lp243
F0
aF0
aF0
aF0
aF0
aa(lp244
F0
aF0
aF0
aF0
aF0
aa(lp245
F0
aF0
aF0
aF0
aF0
aa(lp246
F0
aF0
aF0
aF0
aF0
aa(lp247
F0
aF0
aF0
aF0
aF0
aa(lp248
F0
aF0
aF0
aF0
aF0
aa(lp249
F0
aF0
aF0
aF0
aF0
aa(lp250
F0
aF0
aF0
aF0
aF0
aa(lp251
F0
aF0
aF0
aF0
aF0
aa(lp252
F0
aF0
aF0
aF0
aF0
aa(lp253
F0
aF0
aF0
aF0
aF0
aa(lp254
F0
aF0
aF0
aF0
aF0
aa(lp255
F0
aF0
aF0
aF0
aF0
aa(lp256
F0
aF0
aF0
aF0
aF0
aa(lp257
F0
aF0
aF0
aF0
aF0
aa(lp258
F0
aF0
aF0
aF0
aF0
aa(lp259
F0
aF0
aF0
aF0
aF0
aa(lp260
F0
aF0
aF0
aF0
aF0
aa(lp261
F0
aF0
aF0
aF0
aF0
aa(lp262
F0
aF0
aF0
aF0
aF0
aaa(lp263
(lp264
F0
aF0
aF0
aF0
aF0
aa(lp265
F0
aF0
aF0
aF0
aF0
aa(lp266
F0
aF0
aF0
aF0
aF0
aa(lp267
F0
aF0
aF0
aF0
aF0
aa(lp268
F0
aF0
aF0
aF0
aF0
aa(lp269
F0
aF0
aF0
aF0
aF0
aa(lp270
F0
aF0
aF0
aF0
aF0
aa(lp271
F0
aF0
aF0
aF0
aF0
aa(lp272
F0
aF0
aF0
aF0
aF0
aa(lp273
F0
aF0
aF0
aF0
aF0
aa(lp274
F0
aF0
aF0
aF0
aF0
aa(lp275
F0
aF0
aF0
aF0
aF0
aa(lp276
F0
aF0
aF0
aF0
aF0
aa(lp277
F0
aF0
aF0
aF0
aF0
aa(lp278
F0
aF0
aF0
aF0
aF0
aa(lp279
F0
aF0
aF0
aF0
aF0
aa(lp280
F0
aF0
aF0
aF0
aF0
aa(lp281
F0
aF0
aF0
aF0
aF0
aa(lp282
F0
aF0
aF0
aF0
aF0
aa(lp283
F1
aF0
aF0
aF1
aF0
aa(lp284
F0
aF0
aF0
aF0
aF0
aa(lp285
F0
aF0
aF0
aF0
aF0
aa(lp286
F0
aF0
aF0
aF0
aF0
aa(lp287
F0
aF0
aF0
aF0
aF0
aa(lp288
F0
aF0
aF0
aF0
aF0
aa(lp289
F0
aF0
aF0
aF0
aF0
aa(lp290
F0
aF0
aF0
aF0
aF0
aa(lp291
F0
aF0
aF0
aF0
aF0
aa(lp292
F0
aF0
aF0
aF0
aF0
aa(lp293
F0
aF0
aF0
aF0
aF0
aa(lp294
F0
aF0
aF0
aF0
aF0
aa(lp295
F0
aF0
aF0
aF0
aF0
aa(lp296
F0
aF0
aF0
aF0
aF0
aa(lp297
F0
aF0
aF0
aF0
aF0
aa(lp298
F0
aF0
aF0
aF0
aF0
aa(lp299
F0
aF0
aF0
aF0
aF0
aa(lp300
F0
aF0
aF0
aF0
aF0
aa(lp301
F0
aF0
aF0
aF0
aF0
aa(lp302
F0
aF0
aF0
aF0
aF0
aa(lp303
F0
aF0
aF0
aF0
aF0
aa(lp304
F0
aF0
aF0
aF0
aF0
aa(lp305
F0
aF0
aF0
aF0
aF0
aa(lp306
F0
aF0
aF0
aF0
aF0
aa(lp307
F0
aF0
aF0
aF0
aF0
aa(lp308
F0
aF0
aF0
aF0
aF0
aa(lp309
F0
aF0
aF0
aF0
aF0
aa(lp310
F0
aF0
aF0
aF0
aF0
aa(lp311
F0
aF0
aF0
aF0
aF0
aa(lp312
F0
aF0
aF0
aF0
aF0
aa(lp313
F0
aF0
aF0
aF0
aF0
aa(lp314
F0
aF0
aF0
aF0
aF0
aa(lp315
F0
aF0
aF0
aF0
aF0
aa(lp316
F0
aF0
aF0
aF0
aF0
aa(lp317
F0
aF0
aF0
aF0
aF0
aa(lp318
F0
aF0
aF0
aF0
aF0
aa(lp319
F0
aF0
aF0
aF0
aF0
aa(lp320
F0
aF0
aF0
aF0
aF0
aa(lp321
F0
aF0
aF0
aF0
aF0
aa(lp322
F0
aF0
aF0
aF0
aF0
aa(lp323
F0
aF0
aF0
aF0
aF0
aa(lp324
F0
aF0
aF0
aF0
aF0
aa(lp325
F0
aF0
aF0
aF0
aF0
aa(lp326
F0
aF0
aF0
aF0
aF0
aa(lp327
F0
aF0
aF0
aF0
aF0
aa(lp328
F0
aF0
aF0
aF0
aF0
aa(lp329
F0
aF0
aF0
aF0
aF0
aa(lp330
F0
aF0
aF0
aF0
aF0
aa(lp331
F0
aF0
aF0
aF0
aF0
aa(lp332
F0
aF0
aF0
aF0
aF0
aa(lp333
F0
aF0
aF0
aF0
aF0
aa(lp334
F0
aF0
aF0
aF0
aF0
aa(lp335
F0
aF0
aF0
aF0
aF0
aa(lp336
F0
aF0
aF0
aF0
aF0
aa(lp337
F0
aF0
aF0
aF0
aF0
aa(lp338
F0
aF0
aF0
aF0
aF0
aa(lp339
F0
aF0
aF0
aF0
aF0
aa(lp340
F0
aF0
aF0
aF0
aF0
aa(lp341
F0
aF0
aF0
aF0
aF0
aa(lp342
F0
aF0
aF0
aF0
aF0
aa(lp343
F0
aF0
aF0
aF0
aF0
aa(lp344
F0
aF0
aF0
aF0
aF0
aa(lp345
F0
aF0
aF0
aF0
aF0
aa(lp346
F0
aF0
aF0
aF0
aF0
aa(lp347
F0
aF0
aF0
aF0
aF0
aa(lp348
F0
aF0
aF0
aF0
aF0
aa(lp349
F0
aF0
aF0
aF0
aF0
aaa(lp350
(lp351
F0
aF0
aF0
aF0
aF0
aa(lp352
F0
aF0
aF0
aF0
aF0
aa(lp353
F0
aF0
aF0
aF0
aF0
aa(lp354
F0
aF0
aF0
aF0
aF0
aa(lp355
F0
aF0
aF0
aF0
aF0
aa(lp356
F0
aF0
aF0
aF0
aF0
aa(lp357
F0
aF0
aF0
aF0
aF0
aa(lp358
F0
aF0
aF0
aF0
aF0
aa(lp359
F0
aF0
aF0
aF0
aF0
aa(lp360
F0
aF0
aF0
aF0
aF0
aa(lp361
F0
aF0
aF0
aF0
aF0
aa(lp362
F0
aF0
aF0
aF0
aF0
aa(lp363
F0
aF0
aF0
aF0
aF0
aa(lp364
F0
aF0
aF0
aF0
aF0
aa(lp365
F0
aF0
aF0
aF0
aF0
aa(lp366
F0
aF0
aF0
aF0
aF0
aa(lp367
F0
aF0
aF0
aF0
aF0
aa(lp368
F0
aF0
aF0
aF0
aF0
aa(lp369
F0
aF0
aF0
aF0
aF0
aa(lp370
F0
aF0
aF0
aF0
aF0
aa(lp371
F0
aF0
aF0
aF0
aF0
aa(lp372
F0
aF0
aF0
aF0
aF0
aa(lp373
F0
aF0
aF0
aF0
aF0
aa(lp374
F0
aF0
aF0
aF0
aF0
aa(lp375
F0
aF0
aF0
aF0
aF0
aa(lp376
F0
aF0
aF0
aF0
aF0
aa(lp377
F0
aF0
aF0
aF0
aF0
aa(lp378
F1
aF0
aF0
aF1
aF0
aa(lp379
F0
aF0
aF0
aF0
aF0
aa(lp380
F0
aF0
aF0
aF0
aF0
aa(lp381
F0
aF0
aF0
aF0
aF0
aa(lp382
F0
aF0
aF0
aF0
aF0
aa(lp383
F0
aF0
aF0
aF0
aF0
aa(lp384
F0
aF0
aF0
aF0
aF0
aa(lp385
F0
aF0
aF0
aF0
aF0
aa(lp386
F0
aF0
aF0
aF0
aF0
aa(lp387
F0
aF0
aF0
aF0
aF0
aa(lp388
F0
aF0
aF0
aF0
aF0
aa(lp389
F0
aF0
aF0
aF0
aF0
aa(lp390
F0
aF0
aF0
aF0
aF0
aa(lp391
F0
aF0
aF0
aF0
aF0
aa(lp392
F0
aF0
aF0
aF0
aF0
aa(lp393
F0
aF0
aF0
aF0
aF0
aa(lp394
F0
aF0
aF0
aF0
aF0
aa(lp395
F0
aF0
aF0
aF0
aF0
aa(lp396
F0
aF0
aF0
aF0
aF0
aa(lp397
F0
aF0
aF0
aF0
aF0
aa(lp398
F0
aF0
aF0
aF0
aF0
aa(lp399
F0
aF0
aF0
aF0
aF0
aa(lp400
F0
aF0
aF0
aF0
aF0
aa(lp401
F0
aF0
aF0
aF0
aF0
aa(lp402
F0
aF0
aF0
aF0
aF0
aa(lp403
F0
aF0
aF0
aF0
aF0
aa(lp404
F0
aF0
aF0
aF0
aF0
aa(lp405
F0
aF0
aF0
aF0
aF0
aa(lp406
F0
aF0
aF0
aF0
aF0
aa(lp407
F0
aF0
aF0
aF0
aF0
aa(lp408
F0
aF0
aF0
aF0
aF0
aa(lp409
F0
aF0
aF0
aF0
aF0
aa(lp410
F0
aF0
aF0
aF0
aF0
aa(lp411
F0
aF0
aF0
aF0
aF0
aa(lp412
F0
aF0
aF0
aF0
aF0
aa(lp413
F0
aF0
aF0
aF0
aF0
aa(lp414
F0
aF0
aF0
aF0
aF0
aa(lp415
F0
aF0
aF0
aF0
aF0
aa(lp416
F0
aF0
aF0
aF0
aF0
aa(lp417
F0
aF0
aF0
aF0
aF0
aa(lp418
F0
aF0
aF0
aF0
aF0
aa(lp419
F0
aF0
aF0
aF0
aF0
aa(lp420
F0
aF0
aF0
aF0
aF0
aa(lp421
F0
aF0
aF0
aF0
aF0
aa(lp422
F0
aF0
aF0
aF0
aF0
aa(lp423
F0
aF0
aF0
aF0
aF0
aa(lp424
F0
aF0
aF0
aF0
aF0
aa(lp425
F0
aF0
aF0
aF0
aF0
aa(lp426
F0
aF0
aF0
aF0
aF0
aa(lp427
F0
aF0
aF0
aF0
aF0
aa(lp428
F0
aF0
aF0
aF0
aF0
aa(lp429
F0
aF0
aF0
aF0
aF0
aa(lp430
F0
aF0
aF0
aF0
aF0
aa(lp431
F0
aF0
aF0
aF0
aF0
aa(lp432
F0
aF0
aF0
aF0
aF0
aa(lp433
F0
aF0
aF0
aF0
aF0
aa(lp434
F0
aF0
aF0
aF0
aF0
aa(lp435
F0
aF0
aF0
aF0
aF0
aa(lp436
F0
aF0
aF0
aF0
aF0
aaa(lp437
(lp438
F0
aF0
aF0
aF0
aF0
aa(lp439
F0
aF0
aF0
aF0
aF0
aa(lp440
F0
aF0
aF0
aF0
aF0
aa(lp441
F0
aF0
aF0
aF0
aF0
aa(lp442
F0
aF0
aF0
aF0
aF0
aa(lp443
F0
aF0
aF0
aF0
aF0
aa(lp444
F0
aF0
aF0
aF0
aF0
aa(lp445
F0
aF0
aF0
aF0
aF0
aa(lp446
F0
aF0
aF0
aF0
aF0
aa(lp447
F0
aF0
aF0
aF0
aF0
aa(lp448
F0
aF0
aF0
aF0
aF0
aa(lp449
F0
aF0
aF0
aF0
aF0
aa(lp450
F0
aF0
aF0
aF0
aF0
aa(lp451
F0
aF0
aF0
aF0
aF0
aa(lp452
F0
aF0
aF0
aF0
aF0
aa(lp453
F0
aF0
aF0
aF0
aF0
aa(lp454
F0
aF0
aF0
aF0
aF0
aa(lp455
F0
aF0
aF0
aF0
aF0
aa(lp456
F0
aF0
aF0
aF0
aF0
aa(lp457
F0
aF0
aF0
aF0
aF0
aa(lp458
F0
aF0
aF0
aF0
aF0
aa(lp459
F0
aF0
aF0
aF0
aF0
aa(lp460
F0
aF0
aF0
aF0
aF0
aa(lp461
F0
aF0
aF0
aF0
aF0
aa(lp462
F0
aF0
aF0
aF0
aF0
aa(lp463
F0
aF0
aF0
aF0
aF0
aa(lp464
F0
aF0
aF0
aF0
aF0
aa(lp465
F0
aF0
aF0
aF0
aF0
aa(lp466
F0
aF0
aF0
aF0
aF0
aa(lp467
F0
aF0
aF0
aF0
aF0
aa(lp468
F0
aF0
aF0
aF0
aF0
aa(lp469
F0
aF0
aF0
aF0
aF0
aa(lp470
F0
aF0
aF0
aF0
aF0
aa(lp471
F0
aF0
aF0
aF0
aF0
aa(lp472
F0
aF0
aF0
aF0
aF0
aa(lp473
F0
aF0
aF0
aF0
aF0
aa(lp474
F0
aF0
aF0
aF0
aF0
aa(lp475
F0
aF0
aF0
aF0
aF0
aa(lp476
F0
aF0
aF0
aF0
aF0
aa(lp477
F0
aF0
aF0
aF0
aF0
aa(lp478
F0
aF0
aF0
aF0
aF0
aa(lp479
F0
aF0
aF0
aF0
aF0
aa(lp480
F0
aF0
aF0
aF0
aF0
aa(lp481
F1
aF1
aF0
aF1
aF0
aa(lp482
F0
aF0
aF0
aF0
aF0
aa(lp483
F0
aF0
aF0
aF0
aF0
aa(lp484
F0
aF0
aF0
aF0
aF0
aa(lp485
F0
aF0
aF0
aF0
aF0
aa(lp486
F0
aF0
aF0
aF0
aF0
aa(lp487
F0
aF0
aF0
aF0
aF0
aa(lp488
F0
aF0
aF0
aF0
aF0
aa(lp489
F0
aF0
aF0
aF0
aF0
aa(lp490
F0
aF0
aF0
aF0
aF0
aa(lp491
F0
aF0
aF0
aF0
aF0
aa(lp492
F0
aF0
aF0
aF0
aF0
aa(lp493
F0
aF0
aF0
aF0
aF0
aa(lp494
F0
aF0
aF0
aF0
aF0
aa(lp495
F0
aF0
aF0
aF0
aF0
aa(lp496
F0
aF0
aF0
aF0
aF0
aa(lp497
F0
aF0
aF0
aF0
aF0
aa(lp498
F0
aF0
aF0
aF0
aF0
aa(lp499
F0
aF0
aF0
aF0
aF0
aa(lp500
F0
aF0
aF0
aF0
aF0
aa(lp501
F0
aF0
aF0
aF0
aF0
aa(lp502
F0
aF0
aF0
aF0
aF0
aa(lp503
F0
aF0
aF0
aF0
aF0
aa(lp504
F0
aF0
aF0
aF0
aF0
aa(lp505
F0
aF0
aF0
aF0
aF0
aa(lp506
F0
aF0
aF0
aF0
aF0
aa(lp507
F0
aF0
aF0
aF0
aF0
aa(lp508
F0
aF0
aF0
aF0
aF0
aa(lp509
F0
aF0
aF0
aF0
aF0
aa(lp510
F0
aF0
aF0
aF0
aF0
aa(lp511
F0
aF0
aF0
aF0
aF0
aa(lp512
F0
aF0
aF0
aF0
aF0
aa(lp513
F0
aF0
aF0
aF0
aF0
aa(lp514
F0
aF0
aF0
aF0
aF0
aa(lp515
F0
aF0
aF0
aF0
aF0
aa(lp516
F0
aF0
aF0
aF0
aF0
aa(lp517
F0
aF0
aF0
aF0
aF0
aa(lp518
F0
aF0
aF0
aF0
aF0
aa(lp519
F0
aF0
aF0
aF0
aF0
aa(lp520
F0
aF0
aF0
aF0
aF0
aa(lp521
F0
aF0
aF0
aF0
aF0
aa(lp522
F0
aF0
aF0
aF0
aF0
aa(lp523
F0
aF0
aF0
aF0
aF0
aaa(lp524
(lp525
F0
aF0
aF0
aF0
aF0
aa(lp526
F0
aF0
aF0
aF0
aF0
aa(lp527
F0
aF0
aF0
aF0
aF0
aa(lp528
F0
aF0
aF0
aF0
aF0
aa(lp529
F0
aF0
aF0
aF0
aF0
aa(lp530
F0
aF0
aF0
aF0
aF0
aa(lp531
F0
aF0
aF0
aF0
aF0
aa(lp532
F0
aF0
aF0
aF0
aF0
aa(lp533
F0
aF0
aF0
aF0
aF0
aa(lp534
F0
aF0
aF0
aF0
aF0
aa(lp535
F0
aF0
aF0
aF0
aF0
aa(lp536
F0
aF0
aF0
aF0
aF0
aa(lp537
F0
aF0
aF0
aF0
aF0
aa(lp538
F0
aF0
aF0
aF0
aF0
aa(lp539
F0
aF0
aF0
aF0
aF0
aa(lp540
F0
aF0
aF0
aF0
aF0
aa(lp541
F0
aF0
aF0
aF0
aF0
aa(lp542
F0
aF0
aF0
aF0
aF0
aa(lp543
F0
aF0
aF0
aF0
aF0
aa(lp544
F0
aF0
aF0
aF0
aF0
aa(lp545
F0
aF0
aF0
aF0
aF0
aa(lp546
F0
aF0
aF0
aF0
aF0
aa(lp547
F0
aF0
aF0
aF0
aF0
aa(lp548
F0
aF0
aF0
aF0
aF0
aa(lp549
F0
aF0
aF0
aF0
aF0
aa(lp550
F0
aF0
aF0
aF0
aF0
aa(lp551
F0
aF0
aF0
aF0
aF0
aa(lp552
F0
aF0
aF0
aF0
aF0
aa(lp553
F0
aF0
aF0
aF0
aF0
aa(lp554
F0
aF0
aF0
aF0
aF0
aa(lp555
F0
aF0
aF0
aF0
aF0
aa(lp556
F0
aF0
aF0
aF0
aF0
aa(lp557
F0
aF0
aF0
aF0
aF0
aa(lp558
F0
aF0
aF0
aF0
aF0
aa(lp559
F0
aF0
aF0
aF0
aF0
aa(lp560
F0
aF0
aF0
aF0
aF0
aa(lp561
F0
aF0
aF0
aF0
aF0
aa(lp562
F0
aF0
aF0
aF0
aF0
aa(lp563
F0
aF0
aF0
aF0
aF0
aa(lp564
F0
aF0
aF0
aF0
aF0
aa(lp565
F0
aF0
aF0
aF0
aF0
aa(lp566
F0
aF0
aF0
aF0
aF0
aa(lp567
F0
aF0
aF0
aF0
aF0
aa(lp568
F0
aF0
aF0
aF0
aF0
aa(lp569
F0
aF0
aF0
aF0
aF0
aa(lp570
F0
aF0
aF0
aF0
aF0
aa(lp571
F0
aF0
aF0
aF0
aF0
aa(lp572
F0
aF0
aF0
aF0
aF0
aa(lp573
F0
aF0
aF0
aF0
aF0
aa(lp574
F1
aF0
aF0
aF1
aF0
aa(lp575
F0
aF0
aF0
aF0
aF0
aa(lp576
F0
aF0
aF0
aF0
aF0
aa(lp577
F0
aF0
aF0
aF0
aF0
aa(lp578
F0
aF0
aF0
aF0
aF0
aa(lp579
F0
aF0
aF0
aF0
aF0
aa(lp580
F0
aF0
aF0
aF0
aF0
aa(lp581
F0
aF0
aF0
aF0
aF0
aa(lp582
F0
aF0
aF0
aF0
aF0
aa(lp583
F0
aF0
aF0
aF0
aF0
aa(lp584
F0
aF0
aF0
aF0
aF0
aa(lp585
F0
aF0
aF0
aF0
aF0
aa(lp586
F0
aF0
aF0
aF0
aF0
aa(lp587
F0
aF0
aF0
aF0
aF0
aa(lp588
F0
aF0
aF0
aF0
aF0
aa(lp589
F0
aF0
aF0
aF0
aF0
aa(lp590
F0
aF0
aF0
aF0
aF0
aa(lp591
F0
aF0
aF0
aF0
aF0
aa(lp592
F0
aF0
aF0
aF0
aF0
aa(lp593
F0
aF0
aF0
aF0
aF0
aa(lp594
F0
aF0
aF0
aF0
aF0
aa(lp595
F0
aF0
aF0
aF0
aF0
aa(lp596
F0
aF0
aF0
aF0
aF0
aa(lp597
F0
aF0
aF0
aF0
aF0
aa(lp598
F0
aF0
aF0
aF0
aF0
aa(lp599
F0
aF0
aF0
aF0
aF0
aa(lp600
F0
aF0
aF0
aF0
aF0
aa(lp601
F0
aF0
aF0
aF0
aF0
aa(lp602
F0
aF0
aF0
aF0
aF0
aa(lp603
F0
aF0
aF0
aF0
aF0
aa(lp604
F0
aF0
aF0
aF0
aF0
aa(lp605
F0
aF0
aF0
aF0
aF0
aa(lp606
F0
aF0
aF0
aF0
aF0
aa(lp607
F0
aF0
aF0
aF0
aF0
aa(lp608
F0
aF0
aF0
aF0
aF0
aa(lp609
F0
aF0
aF0
aF0
aF0
aa(lp610
F0
aF0
aF0
aF0
aF0
aaa(lp611
(lp612
F0
aF0
aF0
aF0
aF0
aa(lp613
F0
aF0
aF0
aF0
aF0
aa(lp614
F0
aF0
aF0
aF0
aF0
aa(lp615
F0
aF0
aF0
aF0
aF0
aa(lp616
F0
aF0
aF0
aF0
aF0
aa(lp617
F0
aF0
aF0
aF0
aF0
aa(lp618
F0
aF0
aF0
aF0
aF0
aa(lp619
F0
aF0
aF0
aF0
aF0
aa(lp620
F0
aF0
aF0
aF0
aF0
aa(lp621
F0
aF0
aF0
aF0
aF0
aa(lp622
F0
aF0
aF0
aF0
aF0
aa(lp623
F0
aF0
aF0
aF0
aF0
aa(lp624
F0
aF0
aF0
aF0
aF0
aa(lp625
F0
aF0
aF0
aF0
aF0
aa(lp626
F0
aF0
aF0
aF0
aF0
aa(lp627
F0
aF0
aF0
aF0
aF0
aa(lp628
F0
aF0
aF0
aF0
aF0
aa(lp629
F0
aF0
aF0
aF0
aF0
aa(lp630
F0
aF0
aF0
aF0
aF0
aa(lp631
F0
aF0
aF0
aF0
aF0
aa(lp632
F0
aF0
aF0
aF0
aF0
aa(lp633
F0
aF0
aF0
aF0
aF0
aa(lp634
F0
aF0
aF0
aF0
aF0
aa(lp635
F0
aF0
aF0
aF0
aF0
aa(lp636
F0
aF0
aF0
aF0
aF0
aa(lp637
F0
aF0
aF0
aF0
aF0
aa(lp638
F0
aF0
aF0
aF0
aF0
aa(lp639
F0
aF0
aF0
aF0
aF0
aa(lp640
F0
aF0
aF0
aF0
aF0
aa(lp641
F0
aF0
aF0
aF0
aF0
aa(lp642
F0
aF0
aF0
aF0
aF0
aa(lp643
F0
aF0
aF0
aF0
aF0
aa(lp644
F0
aF0
aF0
aF0
aF0
aa(lp645
F1
aF0
aF0
aF1
aF0
aa(lp646
F0
aF0
aF0
aF0
aF0
aa(lp647
F0
aF0
aF0
aF0
aF0
aa(lp648
F0
aF0
aF0
aF0
aF0
aa(lp649
F0
aF0
aF0
aF0
aF0
aa(lp650
F0
aF0
aF0
aF0
aF0
aa(lp651
F0
aF0
aF0
aF0
aF0
aa(lp652
F0
aF0
aF0
aF0
aF0
aa(lp653
F0
aF0
aF0
aF0
aF0
aa(lp654
F0
aF0
aF0
aF0
aF0
aa(lp655
F0
aF0
aF0
aF0
aF0
aa(lp656
F0
aF0
aF0
aF0
aF0
aa(lp657
F0
aF0
aF0
aF0
aF0
aa(lp658
F0
aF0
aF0
aF0
aF0
aa(lp659
F0
aF0
aF0
aF0
aF0
aa(lp660
F0
aF0
aF0
aF0
aF0
aa(lp661
F0
aF0
aF0
aF0
aF0
aa(lp662
F0
aF0
aF0
aF0
aF0
aa(lp663
F0
aF0
aF0
aF0
aF0
aa(lp664
F0
aF0
aF0
aF0
aF0
aa(lp665
F0
aF0
aF0
aF0
aF0
aa(lp666
F0
aF0
aF0
aF0
aF0
aa(lp667
F0
aF0
aF0
aF0
aF0
aa(lp668
F0
aF0
aF0
aF0
aF0
aa(lp669
F0
aF0
aF0
aF0
aF0
aa(lp670
F0
aF0
aF0
aF0
aF0
aa(lp671
F0
aF0
aF0
aF0
aF0
aa(lp672
F0
aF0
aF0
aF0
aF0
aa(lp673
F0
aF0
aF0
aF0
aF0
aa(lp674
F0
aF0
aF0
aF0
aF0
aa(lp675
F0
aF0
aF0
aF0
aF0
aa(lp676
F0
aF0
aF0
aF0
aF0
aa(lp677
F0
aF0
aF0
aF0
aF0
aa(lp678
F0
aF0
aF0
aF0
aF0
aa(lp679
F0
aF0
aF0
aF0
aF0
aa(lp680
F0
aF0
aF0
aF0
aF0
aa(lp681
F0
aF0
aF0
aF0
aF0
aa(lp682
F0
aF0
aF0
aF0
aF0
aa(lp683
F0
aF0
aF0
aF0
aF0
aa(lp684
F0
aF0
aF0
aF0
aF0
aa(lp685
F0
aF0
aF0
aF0
aF0
aa(lp686
F0
aF0
aF0
aF0
aF0
aa(lp687
F0
aF0
aF0
aF0
aF0
aa(lp688
F0
aF0
aF0
aF0
aF0
aa(lp689
F0
aF0
aF0
aF0
aF0
aa(lp690
F0
aF0
aF0
aF0
aF0
aa(lp691
F0
aF0
aF0
aF0
aF0
aa(lp692
F0
aF0
aF0
aF0
aF0
aa(lp693
F0
aF0
aF0
aF0
aF0
aa(lp694
F0
aF0
aF0
aF0
aF0
aa(lp695
F0
aF0
aF0
aF0
aF0
aa(lp696
F0
aF0
aF0
aF0
aF0
aa(lp697
F0
aF0
aF0
aF0
aF0
aaa(lp698
(lp699
F0
aF0
aF0
aF0
aF0
aa(lp700
F0
aF0
aF0
aF0
aF0
aa(lp701
F0
aF0
aF0
aF0
aF0
aa(lp702
F0
aF0
aF0
aF0
aF0
aa(lp703
F0
aF0
aF0
aF0
aF0
aa(lp704
F0
aF0
aF0
aF0
aF0
aa(lp705
F0
aF0
aF0
aF0
aF0
aa(lp706
F0
aF0
aF0
aF0
aF0
aa(lp707
F0
aF0
aF0
aF0
aF0
aa(lp708
F0
aF0
aF0
aF0
aF0
aa(lp709
F0
aF0
aF0
aF0
aF0
aa(lp710
F0
aF0
aF0
aF0
aF0
aa(lp711
F0
aF0
aF0
aF0
aF0
aa(lp712
F0
aF0
aF0
aF0
aF0
aa(lp713
F0
aF0
aF0
aF0
aF0
aa(lp714
F0
aF0
aF0
aF0
aF0
aa(lp715
F0
aF0
aF0
aF0
aF0
aa(lp716
F0
aF0
aF0
aF0
aF0
aa(lp717
F0
aF0
aF0
aF0
aF0
aa(lp718
F0
aF0
aF0
aF0
aF0
aa(lp719
F0
aF0
aF0
aF0
aF0
aa(lp720
F0
aF0
aF0
aF0
aF0
aa(lp721
F0
aF0
aF0
aF0
aF0
aa(lp722
F0
aF0
aF0
aF0
aF0
aa(lp723
F0
aF0
aF0
aF0
aF0
aa(lp724
F0
aF0
aF0
aF0
aF0
aa(lp725
F0
aF0
aF0
aF0
aF0
aa(lp726
F1
aF0
aF0
aF1
aF0
aa(lp727
F0
aF0
aF0
aF0
aF0
aa(lp728
F0
aF0
aF0
aF0
aF0
aa(lp729
F0
aF0
aF0
aF0
aF0
aa(lp730
F0
aF0
aF0
aF0
aF0
aa(lp731
F0
aF0
aF0
aF0
aF0
aa(lp732
F0
aF0
aF0
aF0
aF0
aa(lp733
F0
aF0
aF0
aF0
aF0
aa(lp734
F0
aF0
aF0
aF0
aF0
aa(lp735
F0
aF0
aF0
aF0
aF0
aa(lp736
F0
aF0
aF0
aF0
aF0
aa(lp737
F0
aF0
aF0
aF0
aF0
aa(lp738
F0
aF0
aF0
aF0
aF0
aa(lp739
F0
aF0
aF0
aF0
aF0
aa(lp740
F0
aF0
aF0
aF0
aF0
aa(lp741
F0
aF0
aF0
aF0
aF0
aa(lp742
F0
aF0
aF0
aF0
aF0
aa(lp743
F0
aF0
aF0
aF0
aF0
aa(lp744
F0
aF0
aF0
aF0
aF0
aa(lp745
F0
aF0
aF0
aF0
aF0
aa(lp746
F0
aF0
aF0
aF0
aF0
aa(lp747
F0
aF0
aF0
aF0
aF0
aa(lp748
F0
aF0
aF0
aF0
aF0
aa(lp749
F0
aF0
aF0
aF0
aF0
aa(lp750
F0
aF0
aF0
aF0
aF0
aa(lp751
F0
aF0
aF0
aF0
aF0
aa(lp752
F0
aF0
aF0
aF0
aF0
aa(lp753
F0
aF0
aF0
aF0
aF0
aa(lp754
F0
aF0
aF0
aF0
aF0
aa(lp755
F0
aF0
aF0
aF0
aF0
aa(lp756
F0
aF0
aF0
aF0
aF0
aa(lp757
F0
aF0
aF0
aF0
aF0
aa(lp758
F0
aF0
aF0
aF0
aF0
aa(lp759
F0
aF0
aF0
aF0
aF0
aa(lp760
F0
aF0
aF0
aF0
aF0
aa(lp761
F0
aF0
aF0
aF0
aF0
aa(lp762
F0
aF0
aF0
aF0
aF0
aa(lp763
F0
aF0
aF0
aF0
aF0
aa(lp764
F0
aF0
aF0
aF0
aF0
aa(lp765
F0
aF0
aF0
aF0
aF0
aa(lp766
F0
aF0
aF0
aF0
aF0
aa(lp767
F0
aF0
aF0
aF0
aF0
aa(lp768
F0
aF0
aF0
aF0
aF0
aa(lp769
F0
aF0
aF0
aF0
aF0
aa(lp770
F0
aF0
aF0
aF0
aF0
aa(lp771
F0
aF0
aF0
aF0
aF0
aa(lp772
F0
aF0
aF0
aF0
aF0
aa(lp773
F0
aF0
aF0
aF0
aF0
aa(lp774
F0
aF0
aF0
aF0
aF0
aa(lp775
F0
aF0
aF0
aF0
aF0
aa(lp776
F0
aF0
aF0
aF0
aF0
aa(lp777
F0
aF0
aF0
aF0
aF0
aa(lp778
F0
aF0
aF0
aF0
aF0
aa(lp779
F0
aF0
aF0
aF0
aF0
aa(lp780
F0
aF0
aF0
aF0
aF0
aa(lp781
F0
aF0
aF0
aF0
aF0
aa(lp782
F0
aF0
aF0
aF0
aF0
aa(lp783
F0
aF0
aF0
aF0
aF0
aa(lp784
F0
aF0
aF0
aF0
aF0
aaa(lp785
(lp786
F0
aF0
aF0
aF0
aF0
aa(lp787
F0
aF0
aF0
aF0
aF0
aa(lp788
F0
aF0
aF0
aF0
aF0
aa(lp789
F0
aF0
aF0
aF0
aF0
aa(lp790
F0
aF0
aF0
aF0
aF0
aa(lp791
F0
aF0
aF0
aF0
aF0
aa(lp792
F0
aF0
aF0
aF0
aF0
aa(lp793
F0
aF0
aF0
aF0
aF0
aa(lp794
F0
aF0
aF0
aF0
aF0
aa(lp795
F0
aF0
aF0
aF0
aF0
aa(lp796
F0
aF0
aF0
aF0
aF0
aa(lp797
F0
aF0
aF0
aF0
aF0
aa(lp798
F0
aF0
aF0
aF0
aF0
aa(lp799
F0
aF0
aF0
aF0
aF0
aa(lp800
F0
aF0
aF0
aF0
aF0
aa(lp801
F0
aF0
aF0
aF0
aF0
aa(lp802
F0
aF0
aF0
aF0
aF0
aa(lp803
F0
aF0
aF0
aF0
aF0
aa(lp804
F0
aF0
aF0
aF0
aF0
aa(lp805
F0
aF0
aF0
aF0
aF0
aa(lp806
F0
aF0
aF0
aF0
aF0
aa(lp807
F0
aF0
aF0
aF0
aF0
aa(lp808
F0
aF0
aF0
aF0
aF0
aa(lp809
F0
aF0
aF0
aF0
aF0
aa(lp810
F0
aF0
aF0
aF0
aF0
aa(lp811
F0
aF0
aF0
aF0
aF0
aa(lp812
F0
aF0
aF0
aF0
aF0
aa(lp813
F0
aF0
aF0
aF0
aF0
aa(lp814
F0
aF0
aF0
aF0
aF0
aa(lp815
F0
aF0
aF0
aF0
aF0
aa(lp816
F0
aF0
aF0
aF0
aF0
aa(lp817
F0
aF0
aF0
aF0
aF0
aa(lp818
F0
aF0
aF0
aF0
aF0
aa(lp819
F0
aF0
aF0
aF0
aF0
aa(lp820
F0
aF0
aF0
aF0
aF0
aa(lp821
F0
aF0
aF0
aF0
aF0
aa(lp822
F0
aF0
aF0
aF0
aF0
aa(lp823
F0
aF0
aF0
aF0
aF0
aa(lp824
F0
aF0
aF0
aF0
aF0
aa(lp825
F0
aF0
aF0
aF0
aF0
aa(lp826
F0
aF0
aF0
aF0
aF0
aa(lp827
F0
aF0
aF0
aF0
aF0
aa(lp828
F0
aF0
aF0
aF0
aF0
aa(lp829
F0
aF0
aF0
aF0
aF0
aa(lp830
F0
aF0
aF0
aF0
aF0
aa(lp831
F0
aF0
aF0
aF0
aF0
aa(lp832
F0
aF0
aF0
aF0
aF0
aa(lp833
F0
aF0
aF0
aF0
aF0
aa(lp834
F0
aF0
aF0
aF0
aF0
aa(lp835
F1
aF0
aF0
aF1
aF0
aa(lp836
F0
aF0
aF0
aF0
aF0
aa(lp837
F0
aF0
aF0
aF0
aF0
aa(lp838
F0
aF0
aF0
aF0
aF0
aa(lp839
F0
aF0
aF0
aF0
aF0
aa(lp840
F0
aF0
aF0
aF0
aF0
aa(lp841
F0
aF0
aF0
aF0
aF0
aa(lp842
F0
aF0
aF0
aF0
aF0
aa(lp843
F0
aF0
aF0
aF0
aF0
aa(lp844
F0
aF0
aF0
aF0
aF0
aa(lp845
F0
aF0
aF0
aF0
aF0
aa(lp846
F0
aF0
aF0
aF0
aF0
aa(lp847
F0
aF0
aF0
aF0
aF0
aa(lp848
F0
aF0
aF0
aF0
aF0
aa(lp849
F0
aF0
aF0
aF0
aF0
aa(lp850
F0
aF0
aF0
aF0
aF0
aa(lp851
F0
aF0
aF0
aF0
aF0
aa(lp852
F0
aF0
aF0
aF0
aF0
aa(lp853
F0
aF0
aF0
aF0
aF0
aa(lp854
F0
aF0
aF0
aF0
aF0
aa(lp855
F0
aF0
aF0
aF0
aF0
aa(lp856
F0
aF0
aF0
aF0
aF0
aa(lp857
F0
aF0
aF0
aF0
aF0
aa(lp858
F0
aF0
aF0
aF0
aF0
aa(lp859
F0
aF0
aF0
aF0
aF0
aa(lp860
F0
aF0
aF0
aF0
aF0
aa(lp861
F0
aF0
aF0
aF0
aF0
aa(lp862
F0
aF0
aF0
aF0
aF0
aa(lp863
F0
aF0
aF0
aF0
aF0
aa(lp864
F0
aF0
aF0
aF0
aF0
aa(lp865
F0
aF0
aF0
aF0
aF0
aa(lp866
F0
aF0
aF0
aF0
aF0
aa(lp867
F0
aF0
aF0
aF0
aF0
aa(lp868
F0
aF0
aF0
aF0
aF0
aa(lp869
F0
aF0
aF0
aF0
aF0
aa(lp870
F0
aF0
aF0
aF0
aF0
aa(lp871
F0
aF0
aF0
aF0
aF0
aaa(lp872
(lp873
F0
aF0
aF0
aF0
aF0
aa(lp874
F0
aF0
aF0
aF0
aF0
aa(lp875
F0
aF0
aF0
aF0
aF0
aa(lp876
F0
aF0
aF0
aF0
aF0
aa(lp877
F0
aF0
aF0
aF0
aF0
aa(lp878
F0
aF0
aF0
aF0
aF0
aa(lp879
F0
aF0
aF0
aF0
aF0
aa(lp880
F0
aF0
aF0
aF0
aF0
aa(lp881
F0
aF0
aF0
aF0
aF0
aa(lp882
F0
aF0
aF0
aF0
aF0
aa(lp883
F0
aF0
aF0
aF0
aF0
aa(lp884
F0
aF0
aF0
aF0
aF0
aa(lp885
F0
aF0
aF0
aF0
aF0
aa(lp886
F0
aF0
aF0
aF0
aF0
aa(lp887
F0
aF0
aF0
aF0
aF0
aa(lp888
F0
aF0
aF0
aF0
aF0
aa(lp889
F0
aF0
aF0
aF0
aF0
aa(lp890
F0
aF0
aF0
aF0
aF0
aa(lp891
F0
aF0
aF0
aF0
aF0
aa(lp892
F0
aF0
aF0
aF0
aF0
aa(lp893
F0
aF0
aF0
aF0
aF0
aa(lp894
F0
aF0
aF0
aF0
aF0
aa(lp895
F0
aF0
aF0
aF0
aF0
aa(lp896
F0
aF0
aF0
aF0
aF0
aa(lp897
F0
aF0
aF0
aF0
aF0
aa(lp898
F0
aF0
aF0
aF0
aF0
aa(lp899
F0
aF0
aF0
aF0
aF0
aa(lp900
F0
aF0
aF0
aF0
aF0
aa(lp901
F0
aF0
aF0
aF0
aF0
aa(lp902
F0
aF0
aF0
aF0
aF0
aa(lp903
F0
aF0
aF0
aF0
aF0
aa(lp904
F0
aF0
aF0
aF0
aF0
aa(lp905
F0
aF0
aF0
aF0
aF0
aa(lp906
F0
aF0
aF0
aF0
aF0
aa(lp907
F0
aF0
aF0
aF0
aF0
aa(lp908
F0
aF0
aF0
aF0
aF0
aa(lp909
F0
aF0
aF0
aF0
aF0
aa(lp910
F0
aF0
aF0
aF0
aF0
aa(lp911
F0
aF0
aF0
aF0
aF0
aa(lp912
F0
aF0
aF0
aF0
aF0
aa(lp913
F0
aF0
aF0
aF0
aF0
aa(lp914
F0
aF0
aF0
aF0
aF0
aa(lp915
F0
aF0
aF0
aF0
aF0
aa(lp916
F0
aF0
aF0
aF0
aF0
aa(lp917
F0
aF0
aF0
aF0
aF0
aa(lp918
F0
aF0
aF0
aF0
aF0
aa(lp919
F0
aF0
aF0
aF0
aF0
aa(lp920
F0
aF0
aF0
aF0
aF0
aa(lp921
F0
aF0
aF0
aF0
aF0
aa(lp922
F1
aF0
aF0
aF1
aF0
aa(lp923
F0
aF0
aF0
aF0
aF0
aa(lp924
F0
aF0
aF0
aF0
aF0
aa(lp925
F0
aF0
aF0
aF0
aF0
aa(lp926
F0
aF0
aF0
aF0
aF0
aa(lp927
F0
aF0
aF0
aF0
aF0
aa(lp928
F0
aF0
aF0
aF0
aF0
aa(lp929
F0
aF0
aF0
aF0
aF0
aa(lp930
F0
aF0
aF0
aF0
aF0
aa(lp931
F0
aF0
aF0
aF0
aF0
aa(lp932
F0
aF0
aF0
aF0
aF0
aa(lp933
F0
aF0
aF0
aF0
aF0
aa(lp934
F0
aF0
aF0
aF0
aF0
aa(lp935
F0
aF0
aF0
aF0
aF0
aa(lp936
F0
aF0
aF0
aF0
aF0
aa(lp937
F0
aF0
aF0
aF0
aF0
aa(lp938
F0
aF0
aF0
aF0
aF0
aa(lp939
F0
aF0
aF0
aF0
aF0
aa(lp940
F0
aF0
aF0
aF0
aF0
aa(lp941
F0
aF0
aF0
aF0
aF0
aa(lp942
F0
aF0
aF0
aF0
aF0
aa(lp943
F0
aF0
aF0
aF0
aF0
aa(lp944
F0
aF0
aF0
aF0
aF0
aa(lp945
F0
aF0
aF0
aF0
aF0
aa(lp946
F0
aF0
aF0
aF0
aF0
aa(lp947
F0
aF0
aF0
aF0
aF0
aa(lp948
F0
aF0
aF0
aF0
aF0
aa(lp949
F0
aF0
aF0
aF0
aF0
aa(lp950
F0
aF0
aF0
aF0
aF0
aa(lp951
F0
aF0
aF0
aF0
aF0
aa(lp952
F0
aF0
aF0
aF0
aF0
aa(lp953
F0
aF0
aF0
aF0
aF0
aa(lp954
F0
aF0
aF0
aF0
aF0
aa(lp955
F0
aF0
aF0
aF0
aF0
aa(lp956
F0
aF0
aF0
aF0
aF0
aa(lp957
F0
aF0
aF0
aF0
aF0
aa(lp958
F0
aF0
aF0
aF0
aF0
aaa(lp959
(lp960
F0
aF0
aF0
aF0
aF0
aa(lp961
F0
aF0
aF0
aF0
aF0
aa(lp962
F0
aF0
aF0
aF0
aF0
aa(lp963
F0
aF0
aF0
aF0
aF0
aa(lp964
F0
aF0
aF0
aF0
aF0
aa(lp965
F0
aF0
aF0
aF0
aF0
aa(lp966
F0
aF0
aF0
aF0
aF0
aa(lp967
F0
aF0
aF0
aF0
aF0
aa(lp968
F0
aF0
aF0
aF0
aF0
aa(lp969
F0
aF0
aF0
aF0
aF0
aa(lp970
F0
aF0
aF0
aF0
aF0
aa(lp971
F0
aF0
aF0
aF0
aF0
aa(lp972
F0
aF0
aF0
aF0
aF0
aa(lp973
F0
aF0
aF0
aF0
aF0
aa(lp974
F0
aF0
aF0
aF0
aF0
aa(lp975
F0
aF0
aF0
aF0
aF0
aa(lp976
F0
aF0
aF0
aF0
aF0
aa(lp977
F0
aF0
aF0
aF0
aF0
aa(lp978
F0
aF0
aF0
aF0
aF0
aa(lp979
F0
aF0
aF0
aF0
aF0
aa(lp980
F0
aF0
aF0
aF0
aF0
aa(lp981
F0
aF0
aF0
aF0
aF0
aa(lp982
F0
aF0
aF0
aF0
aF0
aa(lp983
F0
aF0
aF0
aF0
aF0
aa(lp984
F0
aF0
aF0
aF0
aF0
aa(lp985
F0
aF0
aF0
aF0
aF0
aa(lp986
F0
aF0
aF0
aF0
aF0
aa(lp987
F0
aF0
aF0
aF0
aF0
aa(lp988
F0
aF0
aF0
aF0
aF0
aa(lp989
F0
aF0
aF0
aF0
aF0
aa(lp990
F0
aF0
aF0
aF0
aF0
aa(lp991
F0
aF0
aF0
aF0
aF0
aa(lp992
F0
aF0
aF0
aF0
aF0
aa(lp993
F0
aF0
aF0
aF0
aF0
aa(lp994
F0
aF0
aF0
aF0
aF0
aa(lp995
F0
aF0
aF0
aF0
aF0
aa(lp996
F0
aF0
aF0
aF0
aF0
aa(lp997
F0
aF0
aF0
aF0
aF0
aa(lp998
F0
aF0
aF0
aF0
aF0
aa(lp999
F0
aF0
aF0
aF0
aF0
aa(lp1000
F0
aF0
aF0
aF0
aF0
aa(lp1001
F1
aF1
aF0
aF1
aF0
aa(lp1002
F0
aF0
aF0
aF0
aF0
aa(lp1003
F0
aF0
aF0
aF0
aF0
aa(lp1004
F0
aF0
aF0
aF0
aF0
aa(lp1005
F0
aF0
aF0
aF0
aF0
aa(lp1006
F0
aF0
aF0
aF0
aF0
aa(lp1007
F0
aF0
aF0
aF0
aF0
aa(lp1008
F0
aF0
aF0
aF0
aF0
aa(lp1009
F0
aF0
aF0
aF0
aF0
aa(lp1010
F0
aF0
aF0
aF0
aF0
aa(lp1011
F0
aF0
aF0
aF0
aF0
aa(lp1012
F0
aF0
aF0
aF0
aF0
aa(lp1013
F0
aF0
aF0
aF0
aF0
aa(lp1014
F0
aF0
aF0
aF0
aF0
aa(lp1015
F0
aF0
aF0
aF0
aF0
aa(lp1016
F0
aF0
aF0
aF0
aF0
aa(lp1017
F0
aF0
aF0
aF0
aF0
aa(lp1018
F0
aF0
aF0
aF0
aF0
aa(lp1019
F0
aF0
aF0
aF0
aF0
aa(lp1020
F0
aF0
aF0
aF0
aF0
aa(lp1021
F0
aF0
aF0
aF0
aF0
aa(lp1022
F0
aF0
aF0
aF0
aF0
aa(lp1023
F0
aF0
aF0
aF0
aF0
aa(lp1024
F0
aF0
aF0
aF0
aF0
aa(lp1025
F0
aF0
aF0
aF0
aF0
aa(lp1026
F0
aF0
aF0
aF0
aF0
aa(lp1027
F0
aF0
aF0
aF0
aF0
aa(lp1028
F0
aF0
aF0
aF0
aF0
aa(lp1029
F0
aF0
aF0
aF0
aF0
aa(lp1030
F0
aF0
aF0
aF0
aF0
aa(lp1031
F0
aF0
aF0
aF0
aF0
aa(lp1032
F0
aF0
aF0
aF0
aF0
aa(lp1033
F0
aF0
aF0
aF0
aF0
aa(lp1034
F0
aF0
aF0
aF0
aF0
aa(lp1035
F0
aF0
aF0
aF0
aF0
aa(lp1036
F0
aF0
aF0
aF0
aF0
aa(lp1037
F0
aF0
aF0
aF0
aF0
aa(lp1038
F0
aF0
aF0
aF0
aF0
aa(lp1039
F0
aF0
aF0
aF0
aF0
aa(lp1040
F0
aF0
aF0
aF0
aF0
aa(lp1041
F0
aF0
aF0
aF0
aF0
aa(lp1042
F0
aF0
aF0
aF0
aF0
aa(lp1043
F0
aF0
aF0
aF0
aF0
aa(lp1044
F0
aF0
aF0
aF0
aF0
aa(lp1045
F0
aF0
aF0
aF0
aF0
aaa(lp1046
(lp1047
F0
aF0
aF0
aF0
aF0
aa(lp1048
F0
aF0
aF0
aF0
aF0
aa(lp1049
F0
aF0
aF0
aF0
aF0
aa(lp1050
F0
aF0
aF0
aF0
aF0
aa(lp1051
F0
aF0
aF0
aF0
aF0
aa(lp1052
F0
aF0
aF0
aF0
aF0
aa(lp1053
F0
aF0
aF0
aF0
aF0
aa(lp1054
F0
aF0
aF0
aF0
aF0
aa(lp1055
F0
aF0
aF0
aF0
aF0
aa(lp1056
F0
aF0
aF0
aF0
aF0
aa(lp1057
F0
aF0
aF0
aF0
aF0
aa(lp1058
F0
aF0
aF0
aF0
aF0
aa(lp1059
F0
aF0
aF0
aF0
aF0
aa(lp1060
F0
aF0
aF0
aF0
aF0
aa(lp1061
F0
aF0
aF0
aF0
aF0
aa(lp1062
F0
aF0
aF0
aF0
aF0
aa(lp1063
F0
aF0
aF0
aF0
aF0
aa(lp1064
F0
aF0
aF0
aF0
aF0
aa(lp1065
F0
aF0
aF0
aF0
aF0
aa(lp1066
F0
aF0
aF0
aF0
aF0
aa(lp1067
F0
aF0
aF0
aF0
aF0
aa(lp1068
F0
aF0
aF0
aF0
aF0
aa(lp1069
F0
aF0
aF0
aF0
aF0
aa(lp1070
F0
aF0
aF0
aF0
aF0
aa(lp1071
F0
aF0
aF0
aF0
aF0
aa(lp1072
F0
aF0
aF0
aF0
aF0
aa(lp1073
F0
aF0
aF0
aF0
aF0
aa(lp1074
F0
aF0
aF0
aF0
aF0
aa(lp1075
F0
aF0
aF0
aF0
aF0
aa(lp1076
F0
aF0
aF0
aF0
aF0
aa(lp1077
F0
aF0
aF0
aF0
aF0
aa(lp1078
F0
aF0
aF0
aF0
aF0
aa(lp1079
F0
aF0
aF0
aF0
aF0
aa(lp1080
F0
aF0
aF0
aF0
aF0
aa(lp1081
F0
aF0
aF0
aF0
aF0
aa(lp1082
F0
aF0
aF0
aF0
aF0
aa(lp1083
F0
aF0
aF0
aF0
aF0
aa(lp1084
F0
aF0
aF0
aF0
aF0
aa(lp1085
F0
aF0
aF0
aF0
aF0
aa(lp1086
F0
aF0
aF0
aF0
aF0
aa(lp1087
F0
aF0
aF0
aF0
aF0
aa(lp1088
F0
aF0
aF0
aF0
aF0
aa(lp1089
F0
aF0
aF0
aF0
aF0
aa(lp1090
F0
aF0
aF0
aF0
aF0
aa(lp1091
F0
aF0
aF0
aF0
aF0
aa(lp1092
F0
aF0
aF0
aF0
aF0
aa(lp1093
F0
aF0
aF0
aF0
aF0
aa(lp1094
F0
aF0
aF0
aF0
aF0
aa(lp1095
F1
aF1
aF0
aF1
aF0
aa(lp1096
F0
aF0
aF0
aF0
aF0
aa(lp1097
F0
aF0
aF0
aF0
aF0
aa(lp1098
F0
aF0
aF0
aF0
aF0
aa(lp1099
F0
aF0
aF0
aF0
aF0
aa(lp1100
F0
aF0
aF0
aF0
aF0
aa(lp1101
F0
aF0
aF0
aF0
aF0
aa(lp1102
F0
aF0
aF0
aF0
aF0
aa(lp1103
F0
aF0
aF0
aF0
aF0
aa(lp1104
F0
aF0
aF0
aF0
aF0
aa(lp1105
F0
aF0
aF0
aF0
aF0
aa(lp1106
F0
aF0
aF0
aF0
aF0
aa(lp1107
F0
aF0
aF0
aF0
aF0
aa(lp1108
F0
aF0
aF0
aF0
aF0
aa(lp1109
F0
aF0
aF0
aF0
aF0
aa(lp1110
F0
aF0
aF0
aF0
aF0
aa(lp1111
F0
aF0
aF0
aF0
aF0
aa(lp1112
F0
aF0
aF0
aF0
aF0
aa(lp1113
F0
aF0
aF0
aF0
aF0
aa(lp1114
F0
aF0
aF0
aF0
aF0
aa(lp1115
F0
aF0
aF0
aF0
aF0
aa(lp1116
F0
aF0
aF0
aF0
aF0
aa(lp1117
F0
aF0
aF0
aF0
aF0
aa(lp1118
F0
aF0
aF0
aF0
aF0
aa(lp1119
F0
aF0
aF0
aF0
aF0
aa(lp1120
F0
aF0
aF0
aF0
aF0
aa(lp1121
F0
aF0
aF0
aF0
aF0
aa(lp1122
F0
aF0
aF0
aF0
aF0
aa(lp1123
F0
aF0
aF0
aF0
aF0
aa(lp1124
F0
aF0
aF0
aF0
aF0
aa(lp1125
F0
aF0
aF0
aF0
aF0
aa(lp1126
F0
aF0
aF0
aF0
aF0
aa(lp1127
F0
aF0
aF0
aF0
aF0
aa(lp1128
F0
aF0
aF0
aF0
aF0
aa(lp1129
F0
aF0
aF0
aF0
aF0
aa(lp1130
F0
aF0
aF0
aF0
aF0
aa(lp1131
F0
aF0
aF0
aF0
aF0
aa(lp1132
F0
aF0
aF0
aF0
aF0
aaa(lp1133
(lp1134
F0
aF0
aF0
aF0
aF0
aa(lp1135
F0
aF0
aF0
aF0
aF0
aa(lp1136
F0
aF0
aF0
aF0
aF0
aa(lp1137
F0
aF0
aF0
aF0
aF0
aa(lp1138
F0
aF0
aF0
aF0
aF0
aa(lp1139
F0
aF0
aF0
aF0
aF0
aa(lp1140
F0
aF0
aF0
aF0
aF0
aa(lp1141
F0
aF0
aF0
aF0
aF0
aa(lp1142
F0
aF0
aF0
aF0
aF0
aa(lp1143
F0
aF0
aF0
aF0
aF0
aa(lp1144
F0
aF0
aF0
aF0
aF0
aa(lp1145
F1
aF0
aF0
aF1
aF0
aa(lp1146
F0
aF0
aF0
aF0
aF0
aa(lp1147
F0
aF0
aF0
aF0
aF0
aa(lp1148
F0
aF0
aF0
aF0
aF0
aa(lp1149
F0
aF0
aF0
aF0
aF0
aa(lp1150
F0
aF0
aF0
aF0
aF0
aa(lp1151
F0
aF0
aF0
aF0
aF0
aa(lp1152
F0
aF0
aF0
aF0
aF0
aa(lp1153
F0
aF0
aF0
aF0
aF0
aa(lp1154
F0
aF0
aF0
aF0
aF0
aa(lp1155
F0
aF0
aF0
aF0
aF0
aa(lp1156
F0
aF0
aF0
aF0
aF0
aa(lp1157
F0
aF0
aF0
aF0
aF0
aa(lp1158
F0
aF0
aF0
aF0
aF0
aa(lp1159
F0
aF0
aF0
aF0
aF0
aa(lp1160
F0
aF0
aF0
aF0
aF0
aa(lp1161
F0
aF0
aF0
aF0
aF0
aa(lp1162
F0
aF0
aF0
aF0
aF0
aa(lp1163
F0
aF0
aF0
aF0
aF0
aa(lp1164
F0
aF0
aF0
aF0
aF0
aa(lp1165
F0
aF0
aF0
aF0
aF0
aa(lp1166
F0
aF0
aF0
aF0
aF0
aa(lp1167
F0
aF0
aF0
aF0
aF0
aa(lp1168
F0
aF0
aF0
aF0
aF0
aa(lp1169
F0
aF0
aF0
aF0
aF0
aa(lp1170
F0
aF0
aF0
aF0
aF0
aa(lp1171
F0
aF0
aF0
aF0
aF0
aa(lp1172
F0
aF0
aF0
aF0
aF0
aa(lp1173
F0
aF0
aF0
aF0
aF0
aa(lp1174
F0
aF0
aF0
aF0
aF0
aa(lp1175
F0
aF0
aF0
aF0
aF0
aa(lp1176
F0
aF0
aF0
aF0
aF0
aa(lp1177
F0
aF0
aF0
aF0
aF0
aa(lp1178
F0
aF0
aF0
aF0
aF0
aa(lp1179
F0
aF0
aF0
aF0
aF0
aa(lp1180
F0
aF0
aF0
aF0
aF0
aa(lp1181
F0
aF0
aF0
aF0
aF0
aa(lp1182
F0
aF0
aF0
aF0
aF0
aa(lp1183
F0
aF0
aF0
aF0
aF0
aa(lp1184
F0
aF0
aF0
aF0
aF0
aa(lp1185
F0
aF0
aF0
aF0
aF0
aa(lp1186
F0
aF0
aF0
aF0
aF0
aa(lp1187
F0
aF0
aF0
aF0
aF0
aa(lp1188
F0
aF0
aF0
aF0
aF0
aa(lp1189
F0
aF0
aF0
aF0
aF0
aa(lp1190
F0
aF0
aF0
aF0
aF0
aa(lp1191
F0
aF0
aF0
aF0
aF0
aa(lp1192
F0
aF0
aF0
aF0
aF0
aa(lp1193
F0
aF0
aF0
aF0
aF0
aa(lp1194
F0
aF0
aF0
aF0
aF0
aa(lp1195
F0
aF0
aF0
aF0
aF0
aa(lp1196
F0
aF0
aF0
aF0
aF0
aa(lp1197
F0
aF0
aF0
aF0
aF0
aa(lp1198
F0
aF0
aF0
aF0
aF0
aa(lp1199
F0
aF0
aF0
aF0
aF0
aa(lp1200
F0
aF0
aF0
aF0
aF0
aa(lp1201
F0
aF0
aF0
aF0
aF0
aa(lp1202
F0
aF0
aF0
aF0
aF0
aa(lp1203
F0
aF0
aF0
aF0
aF0
aa(lp1204
F0
aF0
aF0
aF0
aF0
aa(lp1205
F0
aF0
aF0
aF0
aF0
aa(lp1206
F0
aF0
aF0
aF0
aF0
aa(lp1207
F0
aF0
aF0
aF0
aF0
aa(lp1208
F0
aF0
aF0
aF0
aF0
aa(lp1209
F0
aF0
aF0
aF0
aF0
aa(lp1210
F0
aF0
aF0
aF0
aF0
aa(lp1211
F0
aF0
aF0
aF0
aF0
aa(lp1212
F0
aF0
aF0
aF0
aF0
aa(lp1213
F0
aF0
aF0
aF0
aF0
aa(lp1214
F0
aF0
aF0
aF0
aF0
aa(lp1215
F0
aF0
aF0
aF0
aF0
aa(lp1216
F0
aF0
aF0
aF0
aF0
aa(lp1217
F0
aF0
aF0
aF0
aF0
aa(lp1218
F0
aF0
aF0
aF0
aF0
aa(lp1219
F0
aF0
aF0
aF0
aF0
aaa(lp1220
(lp1221
F0
aF0
aF0
aF0
aF0
aa(lp1222
F0
aF0
aF0
aF0
aF0
aa(lp1223
F0
aF0
aF0
aF0
aF0
aa(lp1224
F0
aF0
aF0
aF0
aF0
aa(lp1225
F0
aF0
aF0
aF0
aF0
aa(lp1226
F0
aF0
aF0
aF0
aF0
aa(lp1227
F0
aF0
aF0
aF0
aF0
aa(lp1228
F0
aF0
aF0
aF0
aF0
aa(lp1229
F0
aF0
aF0
aF0
aF0
aa(lp1230
F0
aF0
aF0
aF0
aF0
aa(lp1231
F0
aF0
aF0
aF0
aF0
aa(lp1232
F0
aF0
aF0
aF0
aF0
aa(lp1233
F0
aF0
aF0
aF0
aF0
aa(lp1234
F0
aF0
aF0
aF0
aF0
aa(lp1235
F0
aF0
aF0
aF0
aF0
aa(lp1236
F0
aF0
aF0
aF0
aF0
aa(lp1237
F1
aF0
aF0
aF1
aF0
aa(lp1238
F0
aF0
aF0
aF0
aF0
aa(lp1239
F0
aF0
aF0
aF0
aF0
aa(lp1240
F0
aF0
aF0
aF0
aF0
aa(lp1241
F0
aF0
aF0
aF0
aF0
aa(lp1242
F0
aF0
aF0
aF0
aF0
aa(lp1243
F0
aF0
aF0
aF0
aF0
aa(lp1244
F0
aF0
aF0
aF0
aF0
aa(lp1245
F0
aF0
aF0
aF0
aF0
aa(lp1246
F0
aF0
aF0
aF0
aF0
aa(lp1247
F0
aF0
aF0
aF0
aF0
aa(lp1248
F0
aF0
aF0
aF0
aF0
aa(lp1249
F0
aF0
aF0
aF0
aF0
aa(lp1250
F0
aF0
aF0
aF0
aF0
aa(lp1251
F0
aF0
aF0
aF0
aF0
aa(lp1252
F0
aF0
aF0
aF0
aF0
aa(lp1253
F0
aF0
aF0
aF0
aF0
aa(lp1254
F0
aF0
aF0
aF0
aF0
aa(lp1255
F0
aF0
aF0
aF0
aF0
aa(lp1256
F0
aF0
aF0
aF0
aF0
aa(lp1257
F0
aF0
aF0
aF0
aF0
aa(lp1258
F0
aF0
aF0
aF0
aF0
aa(lp1259
F0
aF0
aF0
aF0
aF0
aa(lp1260
F0
aF0
aF0
aF0
aF0
aa(lp1261
F0
aF0
aF0
aF0
aF0
aa(lp1262
F0
aF0
aF0
aF0
aF0
aa(lp1263
F0
aF0
aF0
aF0
aF0
aa(lp1264
F0
aF0
aF0
aF0
aF0
aa(lp1265
F0
aF0
aF0
aF0
aF0
aa(lp1266
F0
aF0
aF0
aF0
aF0
aa(lp1267
F0
aF0
aF0
aF0
aF0
aa(lp1268
F0
aF0
aF0
aF0
aF0
aa(lp1269
F0
aF0
aF0
aF0
aF0
aa(lp1270
F0
aF0
aF0
aF0
aF0
aa(lp1271
F0
aF0
aF0
aF0
aF0
aa(lp1272
F0
aF0
aF0
aF0
aF0
aa(lp1273
F0
aF0
aF0
aF0
aF0
aa(lp1274
F0
aF0
aF0
aF0
aF0
aa(lp1275
F0
aF0
aF0
aF0
aF0
aa(lp1276
F0
aF0
aF0
aF0
aF0
aa(lp1277
F0
aF0
aF0
aF0
aF0
aa(lp1278
F0
aF0
aF0
aF0
aF0
aa(lp1279
F0
aF0
aF0
aF0
aF0
aa(lp1280
F0
aF0
aF0
aF0
aF0
aa(lp1281
F0
aF0
aF0
aF0
aF0
aa(lp1282
F0
aF0
aF0
aF0
aF0
aa(lp1283
F0
aF0
aF0
aF0
aF0
aa(lp1284
F0
aF0
aF0
aF0
aF0
aa(lp1285
F0
aF0
aF0
aF0
aF0
aa(lp1286
F0
aF0
aF0
aF0
aF0
aa(lp1287
F0
aF0
aF0
aF0
aF0
aa(lp1288
F0
aF0
aF0
aF0
aF0
aa(lp1289
F0
aF0
aF0
aF0
aF0
aa(lp1290
F0
aF0
aF0
aF0
aF0
aa(lp1291
F0
aF0
aF0
aF0
aF0
aa(lp1292
F0
aF0
aF0
aF0
aF0
aa(lp1293
F0
aF0
aF0
aF0
aF0
aa(lp1294
F0
aF0
aF0
aF0
aF0
aa(lp1295
F0
aF0
aF0
aF0
aF0
aa(lp1296
F0
aF0
aF0
aF0
aF0
aa(lp1297
F0
aF0
aF0
aF0
aF0
aa(lp1298
F0
aF0
aF0
aF0
aF0
aa(lp1299
F0
aF0
aF0
aF0
aF0
aa(lp1300
F0
aF0
aF0
aF0
aF0
aa(lp1301
F0
aF0
aF0
aF0
aF0
aa(lp1302
F0
aF0
aF0
aF0
aF0
aa(lp1303
F0
aF0
aF0
aF0
aF0
aa(lp1304
F0
aF0
aF0
aF0
aF0
aa(lp1305
F0
aF0
aF0
aF0
aF0
aa(lp1306
F0
aF0
aF0
aF0
aF0
aaa(lp1307
(lp1308
F0
aF0
aF0
aF0
aF0
aa(lp1309
F0
aF0
aF0
aF0
aF0
aa(lp1310
F0
aF0
aF0
aF0
aF0
aa(lp1311
F0
aF0
aF0
aF0
aF0
aa(lp1312
F0
aF0
aF0
aF0
aF0
aa(lp1313
F0
aF0
aF0
aF0
aF0
aa(lp1314
F0
aF0
aF0
aF0
aF0
aa(lp1315
F0
aF0
aF0
aF0
aF0
aa(lp1316
F0
aF0
aF0
aF0
aF0
aa(lp1317
F0
aF0
aF0
aF0
aF0
aa(lp1318
F0
aF0
aF0
aF0
aF0
aa(lp1319
F0
aF0
aF0
aF0
aF0
aa(lp1320
F0
aF0
aF0
aF0
aF0
aa(lp1321
F0
aF0
aF0
aF0
aF0
aa(lp1322
F0
aF0
aF0
aF0
aF0
aa(lp1323
F0
aF0
aF0
aF0
aF0
aa(lp1324
F0
aF0
aF0
aF0
aF0
aa(lp1325
F0
aF0
aF0
aF0
aF0
aa(lp1326
F0
aF0
aF0
aF0
aF0
aa(lp1327
F0
aF0
aF0
aF0
aF0
aa(lp1328
F0
aF0
aF0
aF0
aF0
aa(lp1329
F0
aF0
aF0
aF0
aF0
aa(lp1330
F0
aF0
aF0
aF0
aF0
aa(lp1331
F0
aF0
aF0
aF0
aF0
aa(lp1332
F0
aF0
aF0
aF0
aF0
aa(lp1333
F0
aF0
aF0
aF0
aF0
aa(lp1334
F0
aF0
aF0
aF0
aF0
aa(lp1335
F0
aF0
aF0
aF0
aF0
aa(lp1336
F0
aF0
aF0
aF0
aF0
aa(lp1337
F1
aF0
aF0
aF1
aF0
aa(lp1338
F0
aF0
aF0
aF0
aF0
aa(lp1339
F0
aF0
aF0
aF0
aF0
aa(lp1340
F0
aF0
aF0
aF0
aF0
aa(lp1341
F0
aF0
aF0
aF0
aF0
aa(lp1342
F0
aF0
aF0
aF0
aF0
aa(lp1343
F0
aF0
aF0
aF0
aF0
aa(lp1344
F0
aF0
aF0
aF0
aF0
aa(lp1345
F0
aF0
aF0
aF0
aF0
aa(lp1346
F0
aF0
aF0
aF0
aF0
aa(lp1347
F0
aF0
aF0
aF0
aF0
aa(lp1348
F0
aF0
aF0
aF0
aF0
aa(lp1349
F0
aF0
aF0
aF0
aF0
aa(lp1350
F0
aF0
aF0
aF0
aF0
aa(lp1351
F0
aF0
aF0
aF0
aF0
aa(lp1352
F0
aF0
aF0
aF0
aF0
aa(lp1353
F0
aF0
aF0
aF0
aF0
aa(lp1354
F0
aF0
aF0
aF0
aF0
aa(lp1355
F0
aF0
aF0
aF0
aF0
aa(lp1356
F0
aF0
aF0
aF0
aF0
aa(lp1357
F0
aF0
aF0
aF0
aF0
aa(lp1358
F0
aF0
aF0
aF0
aF0
aa(lp1359
F0
aF0
aF0
aF0
aF0
aa(lp1360
F0
aF0
aF0
aF0
aF0
aa(lp1361
F0
aF0
aF0
aF0
aF0
aa(lp1362
F0
aF0
aF0
aF0
aF0
aa(lp1363
F0
aF0
aF0
aF0
aF0
aa(lp1364
F0
aF0
aF0
aF0
aF0
aa(lp1365
F0
aF0
aF0
aF0
aF0
aa(lp1366
F0
aF0
aF0
aF0
aF0
aa(lp1367
F0
aF0
aF0
aF0
aF0
aa(lp1368
F0
aF0
aF0
aF0
aF0
aa(lp1369
F0
aF0
aF0
aF0
aF0
aa(lp1370
F0
aF0
aF0
aF0
aF0
aa(lp1371
F0
aF0
aF0
aF0
aF0
aa(lp1372
F0
aF0
aF0
aF0
aF0
aa(lp1373
F0
aF0
aF0
aF0
aF0
aa(lp1374
F0
aF0
aF0
aF0
aF0
aa(lp1375
F0
aF0
aF0
aF0
aF0
aa(lp1376
F0
aF0
aF0
aF0
aF0
aa(lp1377
F0
aF0
aF0
aF0
aF0
aa(lp1378
F0
aF0
aF0
aF0
aF0
aa(lp1379
F0
aF0
aF0
aF0
aF0
aa(lp1380
F0
aF0
aF0
aF0
aF0
aa(lp1381
F0
aF0
aF0
aF0
aF0
aa(lp1382
F0
aF0
aF0
aF0
aF0
aa(lp1383
F0
aF0
aF0
aF0
aF0
aa(lp1384
F0
aF0
aF0
aF0
aF0
aa(lp1385
F0
aF0
aF0
aF0
aF0
aa(lp1386
F0
aF0
aF0
aF0
aF0
aa(lp1387
F0
aF0
aF0
aF0
aF0
aa(lp1388
F0
aF0
aF0
aF0
aF0
aa(lp1389
F0
aF0
aF0
aF0
aF0
aa(lp1390
F0
aF0
aF0
aF0
aF0
aa(lp1391
F0
aF0
aF0
aF0
aF0
aa(lp1392
F0
aF0
aF0
aF0
aF0
aa(lp1393
F0
aF0
aF0
aF0
aF0
aaa(lp1394
(lp1395
F0
aF0
aF0
aF0
aF0
aa(lp1396
F0
aF0
aF0
aF0
aF0
aa(lp1397
F0
aF0
aF0
aF0
aF0
aa(lp1398
F0
aF0
aF0
aF0
aF0
aa(lp1399
F0
aF0
aF0
aF0
aF0
aa(lp1400
F0
aF0
aF0
aF0
aF0
aa(lp1401
F0
aF0
aF0
aF0
aF0
aa(lp1402
F0
aF0
aF0
aF0
aF0
aa(lp1403
F0
aF0
aF0
aF0
aF0
aa(lp1404
F0
aF0
aF0
aF0
aF0
aa(lp1405
F0
aF0
aF0
aF0
aF0
aa(lp1406
F0
aF0
aF0
aF0
aF0
aa(lp1407
F0
aF0
aF0
aF0
aF0
aa(lp1408
F0
aF0
aF0
aF0
aF0
aa(lp1409
F0
aF0
aF0
aF0
aF0
aa(lp1410
F0
aF0
aF0
aF0
aF0
aa(lp1411
F0
aF0
aF0
aF0
aF0
aa(lp1412
F0
aF0
aF0
aF0
aF0
aa(lp1413
F0
aF0
aF0
aF0
aF0
aa(lp1414
F0
aF0
aF0
aF0
aF0
aa(lp1415
F0
aF0
aF0
aF0
aF0
aa(lp1416
F0
aF0
aF0
aF0
aF0
aa(lp1417
F0
aF0
aF0
aF0
aF0
aa(lp1418
F0
aF0
aF0
aF0
aF0
aa(lp1419
F0
aF0
aF0
aF0
aF0
aa(lp1420
F0
aF0
aF0
aF0
aF0
aa(lp1421
F0
aF0
aF0
aF0
aF0
aa(lp1422
F0
aF0
aF0
aF0
aF0
aa(lp1423
F0
aF0
aF0
aF0
aF0
aa(lp1424
F0
aF0
aF0
aF0
aF0
aa(lp1425
F0
aF0
aF0
aF0
aF0
aa(lp1426
F0
aF0
aF0
aF0
aF0
aa(lp1427
F0
aF0
aF0
aF0
aF0
aa(lp1428
F0
aF0
aF0
aF0
aF0
aa(lp1429
F1
aF0
aF0
aF1
aF0
aa(lp1430
F0
aF0
aF0
aF0
aF0
aa(lp1431
F0
aF0
aF0
aF0
aF0
aa(lp1432
F0
aF0
aF0
aF0
aF0
aa(lp1433
F0
aF0
aF0
aF0
aF0
aa(lp1434
F0
aF0
aF0
aF0
aF0
aa(lp1435
F0
aF0
aF0
aF0
aF0
aa(lp1436
F0
aF0
aF0
aF0
aF0
aa(lp1437
F0
aF0
aF0
aF0
aF0
aa(lp1438
F0
aF0
aF0
aF0
aF0
aa(lp1439
F0
aF0
aF0
aF0
aF0
aa(lp1440
F0
aF0
aF0
aF0
aF0
aa(lp1441
F0
aF0
aF0
aF0
aF0
aa(lp1442
F0
aF0
aF0
aF0
aF0
aa(lp1443
F0
aF0
aF0
aF0
aF0
aa(lp1444
F0
aF0
aF0
aF0
aF0
aa(lp1445
F0
aF0
aF0
aF0
aF0
aa(lp1446
F0
aF0
aF0
aF0
aF0
aa(lp1447
F0
aF0
aF0
aF0
aF0
aa(lp1448
F0
aF0
aF0
aF0
aF0
aa(lp1449
F0
aF0
aF0
aF0
aF0
aa(lp1450
F0
aF0
aF0
aF0
aF0
aa(lp1451
F0
aF0
aF0
aF0
aF0
aa(lp1452
F0
aF0
aF0
aF0
aF0
aa(lp1453
F0
aF0
aF0
aF0
aF0
aa(lp1454
F0
aF0
aF0
aF0
aF0
aa(lp1455
F0
aF0
aF0
aF0
aF0
aa(lp1456
F0
aF0
aF0
aF0
aF0
aa(lp1457
F0
aF0
aF0
aF0
aF0
aa(lp1458
F0
aF0
aF0
aF0
aF0
aa(lp1459
F0
aF0
aF0
aF0
aF0
aa(lp1460
F0
aF0
aF0
aF0
aF0
aa(lp1461
F0
aF0
aF0
aF0
aF0
aa(lp1462
F0
aF0
aF0
aF0
aF0
aa(lp1463
F0
aF0
aF0
aF0
aF0
aa(lp1464
F0
aF0
aF0
aF0
aF0
aa(lp1465
F0
aF0
aF0
aF0
aF0
aa(lp1466
F0
aF0
aF0
aF0
aF0
aa(lp1467
F0
aF0
aF0
aF0
aF0
aa(lp1468
F0
aF0
aF0
aF0
aF0
aa(lp1469
F0
aF0
aF0
aF0
aF0
aa(lp1470
F0
aF0
aF0
aF0
aF0
aa(lp1471
F0
aF0
aF0
aF0
aF0
aa(lp1472
F0
aF0
aF0
aF0
aF0
aa(lp1473
F0
aF0
aF0
aF0
aF0
aa(lp1474
F0
aF0
aF0
aF0
aF0
aa(lp1475
F0
aF0
aF0
aF0
aF0
aa(lp1476
F0
aF0
aF0
aF0
aF0
aa(lp1477
F0
aF0
aF0
aF0
aF0
aa(lp1478
F0
aF0
aF0
aF0
aF0
aa(lp1479
F0
aF0
aF0
aF0
aF0
aa(lp1480
F0
aF0
aF0
aF0
aF0
aaa(lp1481
(lp1482
F0
aF0
aF0
aF0
aF0
aa(lp1483
F0
aF0
aF0
aF0
aF0
aa(lp1484
F0
aF0
aF0
aF0
aF0
aa(lp1485
F0
aF0
aF0
aF0
aF0
aa(lp1486
F0
aF0
aF0
aF0
aF0
aa(lp1487
F0
aF0
aF0
aF0
aF0
aa(lp1488
F0
aF0
aF0
aF0
aF0
aa(lp1489
F0
aF0
aF0
aF0
aF0
aa(lp1490
F0
aF0
aF0
aF0
aF0
aa(lp1491
F0
aF0
aF0
aF0
aF0
aa(lp1492
F0
aF0
aF0
aF0
aF0
aa(lp1493
F0
aF0
aF0
aF0
aF0
aa(lp1494
F0
aF0
aF0
aF0
aF0
aa(lp1495
F0
aF0
aF0
aF0
aF0
aa(lp1496
F0
aF0
aF0
aF0
aF0
aa(lp1497
F0
aF0
aF0
aF0
aF0
aa(lp1498
F0
aF0
aF0
aF0
aF0
aa(lp1499
F0
aF0
aF0
aF0
aF0
aa(lp1500
F0
aF0
aF0
aF0
aF0
aa(lp1501
F0
aF0
aF0
aF0
aF0
aa(lp1502
F0
aF0
aF0
aF0
aF0
aa(lp1503
F0
aF0
aF0
aF0
aF0
aa(lp1504
F0
aF0
aF0
aF0
aF0
aa(lp1505
F0
aF0
aF0
aF0
aF0
aa(lp1506
F0
aF0
aF0
aF0
aF0
aa(lp1507
F0
aF0
aF0
aF0
aF0
aa(lp1508
F0
aF0
aF0
aF0
aF0
aa(lp1509
F0
aF0
aF0
aF0
aF0
aa(lp1510
F0
aF0
aF0
aF0
aF0
aa(lp1511
F0
aF0
aF0
aF0
aF0
aa(lp1512
F0
aF0
aF0
aF0
aF0
aa(lp1513
F0
aF0
aF0
aF0
aF0
aa(lp1514
F0
aF0
aF0
aF0
aF0
aa(lp1515
F0
aF0
aF0
aF0
aF0
aa(lp1516
F0
aF0
aF0
aF0
aF0
aa(lp1517
F0
aF0
aF0
aF0
aF0
aa(lp1518
F0
aF0
aF0
aF0
aF0
aa(lp1519
F0
aF0
aF0
aF0
aF0
aa(lp1520
F0
aF0
aF0
aF0
aF0
aa(lp1521
F0
aF0
aF0
aF0
aF0
aa(lp1522
F1
aF0
aF0
aF1
aF0
aa(lp1523
F0
aF0
aF0
aF0
aF0
aa(lp1524
F0
aF0
aF0
aF0
aF0
aa(lp1525
F0
aF0
aF0
aF0
aF0
aa(lp1526
F0
aF0
aF0
aF0
aF0
aa(lp1527
F0
aF0
aF0
aF0
aF0
aa(lp1528
F0
aF0
aF0
aF0
aF0
aa(lp1529
F0
aF0
aF0
aF0
aF0
aa(lp1530
F0
aF0
aF0
aF0
aF0
aa(lp1531
F0
aF0
aF0
aF0
aF0
aa(lp1532
F0
aF0
aF0
aF0
aF0
aa(lp1533
F0
aF0
aF0
aF0
aF0
aa(lp1534
F0
aF0
aF0
aF0
aF0
aa(lp1535
F0
aF0
aF0
aF0
aF0
aa(lp1536
F0
aF0
aF0
aF0
aF0
aa(lp1537
F0
aF0
aF0
aF0
aF0
aa(lp1538
F0
aF0
aF0
aF0
aF0
aa(lp1539
F0
aF0
aF0
aF0
aF0
aa(lp1540
F0
aF0
aF0
aF0
aF0
aa(lp1541
F0
aF0
aF0
aF0
aF0
aa(lp1542
F0
aF0
aF0
aF0
aF0
aa(lp1543
F0
aF0
aF0
aF0
aF0
aa(lp1544
F0
aF0
aF0
aF0
aF0
aa(lp1545
F0
aF0
aF0
aF0
aF0
aa(lp1546
F0
aF0
aF0
aF0
aF0
aa(lp1547
F0
aF0
aF0
aF0
aF0
aa(lp1548
F0
aF0
aF0
aF0
aF0
aa(lp1549
F0
aF0
aF0
aF0
aF0
aa(lp1550
F0
aF0
aF0
aF0
aF0
aa(lp1551
F0
aF0
aF0
aF0
aF0
aa(lp1552
F0
aF0
aF0
aF0
aF0
aa(lp1553
F0
aF0
aF0
aF0
aF0
aa(lp1554
F0
aF0
aF0
aF0
aF0
aa(lp1555
F0
aF0
aF0
aF0
aF0
aa(lp1556
F0
aF0
aF0
aF0
aF0
aa(lp1557
F0
aF0
aF0
aF0
aF0
aa(lp1558
F0
aF0
aF0
aF0
aF0
aa(lp1559
F0
aF0
aF0
aF0
aF0
aa(lp1560
F0
aF0
aF0
aF0
aF0
aa(lp1561
F0
aF0
aF0
aF0
aF0
aa(lp1562
F0
aF0
aF0
aF0
aF0
aa(lp1563
F0
aF0
aF0
aF0
aF0
aa(lp1564
F0
aF0
aF0
aF0
aF0
aa(lp1565
F0
aF0
aF0
aF0
aF0
aa(lp1566
F0
aF0
aF0
aF0
aF0
aa(lp1567
F0
aF0
aF0
aF0
aF0
aaa(lp1568
(lp1569
F0
aF0
aF0
aF0
aF0
aa(lp1570
F0
aF0
aF0
aF0
aF0
aa(lp1571
F0
aF0
aF0
aF0
aF0
aa(lp1572
F0
aF0
aF0
aF0
aF0
aa(lp1573
F0
aF0
aF0
aF0
aF0
aa(lp1574
F0
aF0
aF0
aF0
aF0
aa(lp1575
F0
aF0
aF0
aF0
aF0
aa(lp1576
F0
aF0
aF0
aF0
aF0
aa(lp1577
F0
aF0
aF0
aF0
aF0
aa(lp1578
F0
aF0
aF0
aF0
aF0
aa(lp1579
F0
aF0
aF0
aF0
aF0
aa(lp1580
F0
aF0
aF0
aF0
aF0
aa(lp1581
F0
aF0
aF0
aF0
aF0
aa(lp1582
F0
aF0
aF0
aF0
aF0
aa(lp1583
F0
aF0
aF0
aF0
aF0
aa(lp1584
F0
aF0
aF0
aF0
aF0
aa(lp1585
F0
aF0
aF0
aF0
aF0
aa(lp1586
F0
aF0
aF0
aF0
aF0
aa(lp1587
F0
aF0
aF0
aF0
aF0
aa(lp1588
F0
aF0
aF0
aF0
aF0
aa(lp1589
F0
aF0
aF0
aF0
aF0
aa(lp1590
F0
aF0
aF0
aF0
aF0
aa(lp1591
F0
aF0
aF0
aF0
aF0
aa(lp1592
F0
aF0
aF0
aF0
aF0
aa(lp1593
F0
aF0
aF0
aF0
aF0
aa(lp1594
F0
aF0
aF0
aF0
aF0
aa(lp1595
F0
aF0
aF0
aF0
aF0
aa(lp1596
F0
aF0
aF0
aF0
aF0
aa(lp1597
F0
aF0
aF0
aF0
aF0
aa(lp1598
F0
aF0
aF0
aF0
aF0
aa(lp1599
F0
aF0
aF0
aF0
aF0
aa(lp1600
F0
aF0
aF0
aF0
aF0
aa(lp1601
F0
aF0
aF0
aF0
aF0
aa(lp1602
F0
aF0
aF0
aF0
aF0
aa(lp1603
F0
aF0
aF0
aF0
aF0
aa(lp1604
F0
aF0
aF0
aF0
aF0
aa(lp1605
F0
aF0
aF0
aF0
aF0
aa(lp1606
F0
aF0
aF0
aF0
aF0
aa(lp1607
F0
aF0
aF0
aF0
aF0
aa(lp1608
F0
aF0
aF0
aF0
aF0
aa(lp1609
F0
aF0
aF0
aF0
aF0
aa(lp1610
F0
aF0
aF0
aF0
aF0
aa(lp1611
F0
aF0
aF0
aF0
aF0
aa(lp1612
F0
aF0
aF0
aF0
aF0
aa(lp1613
F0
aF0
aF0
aF0
aF0
aa(lp1614
F0
aF0
aF0
aF0
aF0
aa(lp1615
F0
aF0
aF0
aF0
aF0
aa(lp1616
F0
aF0
aF0
aF0
aF0
aa(lp1617
F0
aF0
aF0
aF0
aF0
aa(lp1618
F1
aF0
aF0
aF1
aF0
aa(lp1619
F0
aF0
aF0
aF0
aF0
aa(lp1620
F0
aF0
aF0
aF0
aF0
aa(lp1621
F0
aF0
aF0
aF0
aF0
aa(lp1622
F0
aF0
aF0
aF0
aF0
aa(lp1623
F0
aF0
aF0
aF0
aF0
aa(lp1624
F0
aF0
aF0
aF0
aF0
aa(lp1625
F0
aF0
aF0
aF0
aF0
aa(lp1626
F0
aF0
aF0
aF0
aF0
aa(lp1627
F0
aF0
aF0
aF0
aF0
aa(lp1628
F0
aF0
aF0
aF0
aF0
aa(lp1629
F0
aF0
aF0
aF0
aF0
aa(lp1630
F0
aF0
aF0
aF0
aF0
aa(lp1631
F0
aF0
aF0
aF0
aF0
aa(lp1632
F0
aF0
aF0
aF0
aF0
aa(lp1633
F0
aF0
aF0
aF0
aF0
aa(lp1634
F0
aF0
aF0
aF0
aF0
aa(lp1635
F0
aF0
aF0
aF0
aF0
aa(lp1636
F0
aF0
aF0
aF0
aF0
aa(lp1637
F0
aF0
aF0
aF0
aF0
aa(lp1638
F0
aF0
aF0
aF0
aF0
aa(lp1639
F0
aF0
aF0
aF0
aF0
aa(lp1640
F0
aF0
aF0
aF0
aF0
aa(lp1641
F0
aF0
aF0
aF0
aF0
aa(lp1642
F0
aF0
aF0
aF0
aF0
aa(lp1643
F0
aF0
aF0
aF0
aF0
aa(lp1644
F0
aF0
aF0
aF0
aF0
aa(lp1645
F0
aF0
aF0
aF0
aF0
aa(lp1646
F0
aF0
aF0
aF0
aF0
aa(lp1647
F0
aF0
aF0
aF0
aF0
aa(lp1648
F0
aF0
aF0
aF0
aF0
aa(lp1649
F0
aF0
aF0
aF0
aF0
aa(lp1650
F0
aF0
aF0
aF0
aF0
aa(lp1651
F0
aF0
aF0
aF0
aF0
aa(lp1652
F0
aF0
aF0
aF0
aF0
aa(lp1653
F0
aF0
aF0
aF0
aF0
aa(lp1654
F0
aF0
aF0
aF0
aF0
aaa(lp1655
(lp1656
F0
aF0
aF0
aF0
aF0
aa(lp1657
F0
aF0
aF0
aF0
aF0
aa(lp1658
F0
aF0
aF0
aF0
aF0
aa(lp1659
F0
aF0
aF0
aF0
aF0
aa(lp1660
F0
aF0
aF0
aF0
aF0
aa(lp1661
F0
aF0
aF0
aF0
aF0
aa(lp1662
F0
aF0
aF0
aF0
aF0
aa(lp1663
F0
aF0
aF0
aF0
aF0
aa(lp1664
F0
aF0
aF0
aF0
aF0
aa(lp1665
F0
aF0
aF0
aF0
aF0
aa(lp1666
F0
aF0
aF0
aF0
aF0
aa(lp1667
F0
aF0
aF0
aF0
aF0
aa(lp1668
F0
aF0
aF0
aF0
aF0
aa(lp1669
F0
aF0
aF0
aF0
aF0
aa(lp1670
F0
aF0
aF0
aF0
aF0
aa(lp1671
F0
aF0
aF0
aF0
aF0
aa(lp1672
F0
aF0
aF0
aF0
aF0
aa(lp1673
F0
aF0
aF0
aF0
aF0
aa(lp1674
F0
aF0
aF0
aF0
aF0
aa(lp1675
F1
aF0
aF0
aF1
aF0
aa(lp1676
F0
aF0
aF0
aF0
aF0
aa(lp1677
F0
aF0
aF0
aF0
aF0
aa(lp1678
F0
aF0
aF0
aF0
aF0
aa(lp1679
F0
aF0
aF0
aF0
aF0
aa(lp1680
F0
aF0
aF0
aF0
aF0
aa(lp1681
F0
aF0
aF0
aF0
aF0
aa(lp1682
F0
aF0
aF0
aF0
aF0
aa(lp1683
F0
aF0
aF0
aF0
aF0
aa(lp1684
F0
aF0
aF0
aF0
aF0
aa(lp1685
F0
aF0
aF0
aF0
aF0
aa(lp1686
F0
aF0
aF0
aF0
aF0
aa(lp1687
F0
aF0
aF0
aF0
aF0
aa(lp1688
F0
aF0
aF0
aF0
aF0
aa(lp1689
F0
aF0
aF0
aF0
aF0
aa(lp1690
F0
aF0
aF0
aF0
aF0
aa(lp1691
F0
aF0
aF0
aF0
aF0
aa(lp1692
F0
aF0
aF0
aF0
aF0
aa(lp1693
F0
aF0
aF0
aF0
aF0
aa(lp1694
F0
aF0
aF0
aF0
aF0
aa(lp1695
F0
aF0
aF0
aF0
aF0
aa(lp1696
F0
aF0
aF0
aF0
aF0
aa(lp1697
F0
aF0
aF0
aF0
aF0
aa(lp1698
F0
aF0
aF0
aF0
aF0
aa(lp1699
F0
aF0
aF0
aF0
aF0
aa(lp1700
F0
aF0
aF0
aF0
aF0
aa(lp1701
F0
aF0
aF0
aF0
aF0
aa(lp1702
F0
aF0
aF0
aF0
aF0
aa(lp1703
F0
aF0
aF0
aF0
aF0
aa(lp1704
F0
aF0
aF0
aF0
aF0
aa(lp1705
F0
aF0
aF0
aF0
aF0
aa(lp1706
F0
aF0
aF0
aF0
aF0
aa(lp1707
F0
aF0
aF0
aF0
aF0
aa(lp1708
F0
aF0
aF0
aF0
aF0
aa(lp1709
F0
aF0
aF0
aF0
aF0
aa(lp1710
F0
aF0
aF0
aF0
aF0
aa(lp1711
F0
aF0
aF0
aF0
aF0
aa(lp1712
F0
aF0
aF0
aF0
aF0
aa(lp1713
F0
aF0
aF0
aF0
aF0
aa(lp1714
F0
aF0
aF0
aF0
aF0
aa(lp1715
F0
aF0
aF0
aF0
aF0
aa(lp1716
F0
aF0
aF0
aF0
aF0
aa(lp1717
F0
aF0
aF0
aF0
aF0
aa(lp1718
F0
aF0
aF0
aF0
aF0
aa(lp1719
F0
aF0
aF0
aF0
aF0
aa(lp1720
F0
aF0
aF0
aF0
aF0
aa(lp1721
F0
aF0
aF0
aF0
aF0
aa(lp1722
F0
aF0
aF0
aF0
aF0
aa(lp1723
F0
aF0
aF0
aF0
aF0
aa(lp1724
F0
aF0
aF0
aF0
aF0
aa(lp1725
F0
aF0
aF0
aF0
aF0
aa(lp1726
F0
aF0
aF0
aF0
aF0
aa(lp1727
F0
aF0
aF0
aF0
aF0
aa(lp1728
F0
aF0
aF0
aF0
aF0
aa(lp1729
F0
aF0
aF0
aF0
aF0
aa(lp1730
F0
aF0
aF0
aF0
aF0
aa(lp1731
F0
aF0
aF0
aF0
aF0
aa(lp1732
F0
aF0
aF0
aF0
aF0
aa(lp1733
F0
aF0
aF0
aF0
aF0
aa(lp1734
F0
aF0
aF0
aF0
aF0
aa(lp1735
F0
aF0
aF0
aF0
aF0
aa(lp1736
F0
aF0
aF0
aF0
aF0
aa(lp1737
F0
aF0
aF0
aF0
aF0
aa(lp1738
F0
aF0
aF0
aF0
aF0
aa(lp1739
F0
aF0
aF0
aF0
aF0
aa(lp1740
F0
aF0
aF0
aF0
aF0
aa(lp1741
F0
aF0
aF0
aF0
aF0
aaa(lp1742
(lp1743
F0
aF0
aF0
aF0
aF0
aa(lp1744
F0
aF0
aF0
aF0
aF0
aa(lp1745
F0
aF0
aF0
aF0
aF0
aa(lp1746
F0
aF0
aF0
aF0
aF0
aa(lp1747
F0
aF0
aF0
aF0
aF0
aa(lp1748
F0
aF0
aF0
aF0
aF0
aa(lp1749
F0
aF0
aF0
aF0
aF0
aa(lp1750
F0
aF0
aF0
aF0
aF0
aa(lp1751
F0
aF0
aF0
aF0
aF0
aa(lp1752
F0
aF0
aF0
aF0
aF0
aa(lp1753
F0
aF0
aF0
aF0
aF0
aa(lp1754
F0
aF0
aF0
aF0
aF0
aa(lp1755
F0
aF0
aF0
aF0
aF0
aa(lp1756
F0
aF0
aF0
aF0
aF0
aa(lp1757
F0
aF0
aF0
aF0
aF0
aa(lp1758
F0
aF0
aF0
aF0
aF0
aa(lp1759
F0
aF0
aF0
aF0
aF0
aa(lp1760
F0
aF0
aF0
aF0
aF0
aa(lp1761
F0
aF0
aF0
aF0
aF0
aa(lp1762
F0
aF0
aF0
aF0
aF0
aa(lp1763
F0
aF0
aF0
aF0
aF0
aa(lp1764
F0
aF0
aF0
aF0
aF0
aa(lp1765
F0
aF0
aF0
aF0
aF0
aa(lp1766
F0
aF0
aF0
aF0
aF0
aa(lp1767
F0
aF0
aF0
aF0
aF0
aa(lp1768
F0
aF0
aF0
aF0
aF0
aa(lp1769
F0
aF0
aF0
aF0
aF0
aa(lp1770
F0
aF0
aF0
aF0
aF0
aa(lp1771
F0
aF0
aF0
aF0
aF0
aa(lp1772
F0
aF0
aF0
aF0
aF0
aa(lp1773
F0
aF0
aF0
aF0
aF0
aa(lp1774
F0
aF0
aF0
aF0
aF0
aa(lp1775
F0
aF0
aF0
aF0
aF0
aa(lp1776
F0
aF0
aF0
aF0
aF0
aa(lp1777
F0
aF0
aF0
aF0
aF0
aa(lp1778
F1
aF1
aF0
aF1
aF0
aa(lp1779
F0
aF0
aF0
aF0
aF0
aa(lp1780
F0
aF0
aF0
aF0
aF0
aa(lp1781
F0
aF0
aF0
aF0
aF0
aa(lp1782
F0
aF0
aF0
aF0
aF0
aa(lp1783
F0
aF0
aF0
aF0
aF0
aa(lp1784
F0
aF0
aF0
aF0
aF0
aa(lp1785
F0
aF0
aF0
aF0
aF0
aa(lp1786
F0
aF0
aF0
aF0
aF0
aa(lp1787
F0
aF0
aF0
aF0
aF0
aa(lp1788
F0
aF0
aF0
aF0
aF0
aa(lp1789
F0
aF0
aF0
aF0
aF0
aa(lp1790
F0
aF0
aF0
aF0
aF0
aa(lp1791
F0
aF0
aF0
aF0
aF0
aa(lp1792
F0
aF0
aF0
aF0
aF0
aa(lp1793
F0
aF0
aF0
aF0
aF0
aa(lp1794
F0
aF0
aF0
aF0
aF0
aa(lp1795
F0
aF0
aF0
aF0
aF0
aa(lp1796
F0
aF0
aF0
aF0
aF0
aa(lp1797
F0
aF0
aF0
aF0
aF0
aa(lp1798
F0
aF0
aF0
aF0
aF0
aa(lp1799
F0
aF0
aF0
aF0
aF0
aa(lp1800
F0
aF0
aF0
aF0
aF0
aa(lp1801
F0
aF0
aF0
aF0
aF0
aa(lp1802
F0
aF0
aF0
aF0
aF0
aa(lp1803
F0
aF0
aF0
aF0
aF0
aa(lp1804
F0
aF0
aF0
aF0
aF0
aa(lp1805
F0
aF0
aF0
aF0
aF0
aa(lp1806
F0
aF0
aF0
aF0
aF0
aa(lp1807
F0
aF0
aF0
aF0
aF0
aa(lp1808
F0
aF0
aF0
aF0
aF0
aa(lp1809
F0
aF0
aF0
aF0
aF0
aa(lp1810
F0
aF0
aF0
aF0
aF0
aa(lp1811
F0
aF0
aF0
aF0
aF0
aa(lp1812
F0
aF0
aF0
aF0
aF0
aa(lp1813
F0
aF0
aF0
aF0
aF0
aa(lp1814
F0
aF0
aF0
aF0
aF0
aa(lp1815
F0
aF0
aF0
aF0
aF0
aa(lp1816
F0
aF0
aF0
aF0
aF0
aa(lp1817
F0
aF0
aF0
aF0
aF0
aa(lp1818
F0
aF0
aF0
aF0
aF0
aa(lp1819
F0
aF0
aF0
aF0
aF0
aa(lp1820
F0
aF0
aF0
aF0
aF0
aa(lp1821
F0
aF0
aF0
aF0
aF0
aa(lp1822
F0
aF0
aF0
aF0
aF0
aa(lp1823
F0
aF0
aF0
aF0
aF0
aa(lp1824
F0
aF0
aF0
aF0
aF0
aa(lp1825
F0
aF0
aF0
aF0
aF0
aa(lp1826
F0
aF0
aF0
aF0
aF0
aa(lp1827
F0
aF0
aF0
aF0
aF0
aa(lp1828
F0
aF0
aF0
aF0
aF0
aaa(lp1829
(lp1830
F0
aF0
aF0
aF0
aF0
aa(lp1831
F0
aF0
aF0
aF0
aF0
aa(lp1832
F0
aF0
aF0
aF0
aF0
aa(lp1833
F0
aF0
aF0
aF0
aF0
aa(lp1834
F0
aF0
aF0
aF0
aF0
aa(lp1835
F0
aF0
aF0
aF0
aF0
aa(lp1836
F0
aF0
aF0
aF0
aF0
aa(lp1837
F0
aF0
aF0
aF0
aF0
aa(lp1838
F0
aF0
aF0
aF0
aF0
aa(lp1839
F0
aF0
aF0
aF0
aF0
aa(lp1840
F0
aF0
aF0
aF0
aF0
aa(lp1841
F0
aF0
aF0
aF0
aF0
aa(lp1842
F0
aF0
aF0
aF0
aF0
aa(lp1843
F0
aF0
aF0
aF0
aF0
aa(lp1844
F0
aF0
aF0
aF0
aF0
aa(lp1845
F0
aF0
aF0
aF0
aF0
aa(lp1846
F1
aF0
aF0
aF1
aF0
aa(lp1847
F0
aF0
aF0
aF0
aF0
aa(lp1848
F0
aF0
aF0
aF0
aF0
aa(lp1849
F0
aF0
aF0
aF0
aF0
aa(lp1850
F0
aF0
aF0
aF0
aF0
aa(lp1851
F0
aF0
aF0
aF0
aF0
aa(lp1852
F0
aF0
aF0
aF0
aF0
aa(lp1853
F0
aF0
aF0
aF0
aF0
aa(lp1854
F0
aF0
aF0
aF0
aF0
aa(lp1855
F0
aF0
aF0
aF0
aF0
aa(lp1856
F0
aF0
aF0
aF0
aF0
aa(lp1857
F0
aF0
aF0
aF0
aF0
aa(lp1858
F0
aF0
aF0
aF0
aF0
aa(lp1859
F0
aF0
aF0
aF0
aF0
aa(lp1860
F0
aF0
aF0
aF0
aF0
aa(lp1861
F0
aF0
aF0
aF0
aF0
aa(lp1862
F0
aF0
aF0
aF0
aF0
aa(lp1863
F0
aF0
aF0
aF0
aF0
aa(lp1864
F0
aF0
aF0
aF0
aF0
aa(lp1865
F0
aF0
aF0
aF0
aF0
aa(lp1866
F0
aF0
aF0
aF0
aF0
aa(lp1867
F0
aF0
aF0
aF0
aF0
aa(lp1868
F0
aF0
aF0
aF0
aF0
aa(lp1869
F0
aF0
aF0
aF0
aF0
aa(lp1870
F0
aF0
aF0
aF0
aF0
aa(lp1871
F0
aF0
aF0
aF0
aF0
aa(lp1872
F0
aF0
aF0
aF0
aF0
aa(lp1873
F0
aF0
aF0
aF0
aF0
aa(lp1874
F0
aF0
aF0
aF0
aF0
aa(lp1875
F0
aF0
aF0
aF0
aF0
aa(lp1876
F0
aF0
aF0
aF0
aF0
aa(lp1877
F0
aF0
aF0
aF0
aF0
aa(lp1878
F0
aF0
aF0
aF0
aF0
aa(lp1879
F0
aF0
aF0
aF0
aF0
aa(lp1880
F0
aF0
aF0
aF0
aF0
aa(lp1881
F0
aF0
aF0
aF0
aF0
aa(lp1882
F0
aF0
aF0
aF0
aF0
aa(lp1883
F0
aF0
aF0
aF0
aF0
aa(lp1884
F0
aF0
aF0
aF0
aF0
aa(lp1885
F0
aF0
aF0
aF0
aF0
aa(lp1886
F0
aF0
aF0
aF0
aF0
aa(lp1887
F0
aF0
aF0
aF0
aF0
aa(lp1888
F0
aF0
aF0
aF0
aF0
aa(lp1889
F0
aF0
aF0
aF0
aF0
aa(lp1890
F0
aF0
aF0
aF0
aF0
aa(lp1891
F0
aF0
aF0
aF0
aF0
aa(lp1892
F0
aF0
aF0
aF0
aF0
aa(lp1893
F0
aF0
aF0
aF0
aF0
aa(lp1894
F0
aF0
aF0
aF0
aF0
aa(lp1895
F0
aF0
aF0
aF0
aF0
aa(lp1896
F0
aF0
aF0
aF0
aF0
aa(lp1897
F0
aF0
aF0
aF0
aF0
aa(lp1898
F0
aF0
aF0
aF0
aF0
aa(lp1899
F0
aF0
aF0
aF0
aF0
aa(lp1900
F0
aF0
aF0
aF0
aF0
aa(lp1901
F0
aF0
aF0
aF0
aF0
aa(lp1902
F0
aF0
aF0
aF0
aF0
aa(lp1903
F0
aF0
aF0
aF0
aF0
aa(lp1904
F0
aF0
aF0
aF0
aF0
aa(lp1905
F0
aF0
aF0
aF0
aF0
aa(lp1906
F0
aF0
aF0
aF0
aF0
aa(lp1907
F0
aF0
aF0
aF0
aF0
aa(lp1908
F0
aF0
aF0
aF0
aF0
aa(lp1909
F0
aF0
aF0
aF0
aF0
aa(lp1910
F0
aF0
aF0
aF0
aF0
aa(lp1911
F0
aF0
aF0
aF0
aF0
aa(lp1912
F0
aF0
aF0
aF0
aF0
aa(lp1913
F0
aF0
aF0
aF0
aF0
aa(lp1914
F0
aF0
aF0
aF0
aF0
aa(lp1915
F0
aF0
aF0
aF0
aF0
aaa(lp1916
(lp1917
F0
aF0
aF0
aF0
aF0
aa(lp1918
F0
aF0
aF0
aF0
aF0
aa(lp1919
F0
aF0
aF0
aF0
aF0
aa(lp1920
F0
aF0
aF0
aF0
aF0
aa(lp1921
F0
aF0
aF0
aF0
aF0
aa(lp1922
F0
aF0
aF0
aF0
aF0
aa(lp1923
F0
aF0
aF0
aF0
aF0
aa(lp1924
F0
aF0
aF0
aF0
aF0
aa(lp1925
F0
aF0
aF0
aF0
aF0
aa(lp1926
F0
aF0
aF0
aF0
aF0
aa(lp1927
F0
aF0
aF0
aF0
aF0
aa(lp1928
F0
aF0
aF0
aF0
aF0
aa(lp1929
F0
aF0
aF0
aF0
aF0
aa(lp1930
F0
aF0
aF0
aF0
aF0
aa(lp1931
F0
aF0
aF0
aF0
aF0
aa(lp1932
F0
aF0
aF0
aF0
aF0
aa(lp1933
F0
aF0
aF0
aF0
aF0
aa(lp1934
F0
aF0
aF0
aF0
aF0
aa(lp1935
F0
aF0
aF0
aF0
aF0
aa(lp1936
F0
aF0
aF0
aF0
aF0
aa(lp1937
F0
aF0
aF0
aF0
aF0
aa(lp1938
F0
aF0
aF0
aF0
aF0
aa(lp1939
F0
aF0
aF0
aF0
aF0
aa(lp1940
F0
aF0
aF0
aF0
aF0
aa(lp1941
F0
aF0
aF0
aF0
aF0
aa(lp1942
F0
aF0
aF0
aF0
aF0
aa(lp1943
F0
aF0
aF0
aF0
aF0
aa(lp1944
F0
aF0
aF0
aF0
aF0
aa(lp1945
F0
aF0
aF0
aF0
aF0
aa(lp1946
F0
aF0
aF0
aF0
aF0
aa(lp1947
F0
aF0
aF0
aF0
aF0
aa(lp1948
F0
aF0
aF0
aF0
aF0
aa(lp1949
F0
aF0
aF0
aF0
aF0
aa(lp1950
F0
aF0
aF0
aF0
aF0
aa(lp1951
F0
aF0
aF0
aF0
aF0
aa(lp1952
F0
aF0
aF0
aF0
aF0
aa(lp1953
F0
aF0
aF0
aF0
aF0
aa(lp1954
F0
aF0
aF0
aF0
aF0
aa(lp1955
F0
aF0
aF0
aF0
aF0
aa(lp1956
F0
aF0
aF0
aF0
aF0
aa(lp1957
F0
aF0
aF0
aF0
aF0
aa(lp1958
F0
aF0
aF0
aF0
aF0
aa(lp1959
F0
aF0
aF0
aF0
aF0
aa(lp1960
F1
aF1
aF0
aF1
aF0
aa(lp1961
F0
aF0
aF0
aF0
aF0
aa(lp1962
F0
aF0
aF0
aF0
aF0
aa(lp1963
F0
aF0
aF0
aF0
aF0
aa(lp1964
F0
aF0
aF0
aF0
aF0
aa(lp1965
F0
aF0
aF0
aF0
aF0
aa(lp1966
F0
aF0
aF0
aF0
aF0
aa(lp1967
F0
aF0
aF0
aF0
aF0
aa(lp1968
F0
aF0
aF0
aF0
aF0
aa(lp1969
F0
aF0
aF0
aF0
aF0
aa(lp1970
F0
aF0
aF0
aF0
aF0
aa(lp1971
F0
aF0
aF0
aF0
aF0
aa(lp1972
F0
aF0
aF0
aF0
aF0
aa(lp1973
F0
aF0
aF0
aF0
aF0
aa(lp1974
F0
aF0
aF0
aF0
aF0
aa(lp1975
F0
aF0
aF0
aF0
aF0
aa(lp1976
F0
aF0
aF0
aF0
aF0
aa(lp1977
F0
aF0
aF0
aF0
aF0
aa(lp1978
F0
aF0
aF0
aF0
aF0
aa(lp1979
F0
aF0
aF0
aF0
aF0
aa(lp1980
F0
aF0
aF0
aF0
aF0
aa(lp1981
F0
aF0
aF0
aF0
aF0
aa(lp1982
F0
aF0
aF0
aF0
aF0
aa(lp1983
F0
aF0
aF0
aF0
aF0
aa(lp1984
F0
aF0
aF0
aF0
aF0
aa(lp1985
F0
aF0
aF0
aF0
aF0
aa(lp1986
F0
aF0
aF0
aF0
aF0
aa(lp1987
F0
aF0
aF0
aF0
aF0
aa(lp1988
F0
aF0
aF0
aF0
aF0
aa(lp1989
F0
aF0
aF0
aF0
aF0
aa(lp1990
F0
aF0
aF0
aF0
aF0
aa(lp1991
F0
aF0
aF0
aF0
aF0
aa(lp1992
F0
aF0
aF0
aF0
aF0
aa(lp1993
F0
aF0
aF0
aF0
aF0
aa(lp1994
F0
aF0
aF0
aF0
aF0
aa(lp1995
F0
aF0
aF0
aF0
aF0
aa(lp1996
F0
aF0
aF0
aF0
aF0
aa(lp1997
F0
aF0
aF0
aF0
aF0
aa(lp1998
F0
aF0
aF0
aF0
aF0
aa(lp1999
F0
aF0
aF0
aF0
aF0
aa(lp2000
F0
aF0
aF0
aF0
aF0
aa(lp2001
F0
aF0
aF0
aF0
aF0
aa(lp2002
F0
aF0
aF0
aF0
aF0
aaa(lp2003
(lp2004
F0
aF0
aF0
aF0
aF0
aa(lp2005
F0
aF0
aF0
aF0
aF0
aa(lp2006
F0
aF0
aF0
aF0
aF0
aa(lp2007
F0
aF0
aF0
aF0
aF0
aa(lp2008
F0
aF0
aF0
aF0
aF0
aa(lp2009
F0
aF0
aF0
aF0
aF0
aa(lp2010
F0
aF0
aF0
aF0
aF0
aa(lp2011
F0
aF0
aF0
aF0
aF0
aa(lp2012
F0
aF0
aF0
aF0
aF0
aa(lp2013
F0
aF0
aF0
aF0
aF0
aa(lp2014
F0
aF0
aF0
aF0
aF0
aa(lp2015
F0
aF0
aF0
aF0
aF0
aa(lp2016
F0
aF0
aF0
aF0
aF0
aa(lp2017
F0
aF0
aF0
aF0
aF0
aa(lp2018
F0
aF0
aF0
aF0
aF0
aa(lp2019
F0
aF0
aF0
aF0
aF0
aa(lp2020
F0
aF0
aF0
aF0
aF0
aa(lp2021
F0
aF0
aF0
aF0
aF0
aa(lp2022
F0
aF0
aF0
aF0
aF0
aa(lp2023
F0
aF0
aF0
aF0
aF0
aa(lp2024
F0
aF0
aF0
aF0
aF0
aa(lp2025
F0
aF0
aF0
aF0
aF0
aa(lp2026
F0
aF0
aF0
aF0
aF0
aa(lp2027
F0
aF0
aF0
aF0
aF0
aa(lp2028
F0
aF0
aF0
aF0
aF0
aa(lp2029
F0
aF0
aF0
aF0
aF0
aa(lp2030
F0
aF0
aF0
aF0
aF0
aa(lp2031
F1
aF0
aF0
aF1
aF0
aa(lp2032
F0
aF0
aF0
aF0
aF0
aa(lp2033
F0
aF0
aF0
aF0
aF0
aa(lp2034
F0
aF0
aF0
aF0
aF0
aa(lp2035
F0
aF0
aF0
aF0
aF0
aa(lp2036
F0
aF0
aF0
aF0
aF0
aa(lp2037
F0
aF0
aF0
aF0
aF0
aa(lp2038
F0
aF0
aF0
aF0
aF0
aa(lp2039
F0
aF0
aF0
aF0
aF0
aa(lp2040
F0
aF0
aF0
aF0
aF0
aa(lp2041
F0
aF0
aF0
aF0
aF0
aa(lp2042
F0
aF0
aF0
aF0
aF0
aa(lp2043
F0
aF0
aF0
aF0
aF0
aa(lp2044
F0
aF0
aF0
aF0
aF0
aa(lp2045
F0
aF0
aF0
aF0
aF0
aa(lp2046
F0
aF0
aF0
aF0
aF0
aa(lp2047
F0
aF0
aF0
aF0
aF0
aa(lp2048
F0
aF0
aF0
aF0
aF0
aa(lp2049
F0
aF0
aF0
aF0
aF0
aa(lp2050
F0
aF0
aF0
aF0
aF0
aa(lp2051
F0
aF0
aF0
aF0
aF0
aa(lp2052
F0
aF0
aF0
aF0
aF0
aa(lp2053
F0
aF0
aF0
aF0
aF0
aa(lp2054
F0
aF0
aF0
aF0
aF0
aa(lp2055
F0
aF0
aF0
aF0
aF0
aa(lp2056
F0
aF0
aF0
aF0
aF0
aa(lp2057
F0
aF0
aF0
aF0
aF0
aa(lp2058
F0
aF0
aF0
aF0
aF0
aa(lp2059
F0
aF0
aF0
aF0
aF0
aa(lp2060
F0
aF0
aF0
aF0
aF0
aa(lp2061
F0
aF0
aF0
aF0
aF0
aa(lp2062
F0
aF0
aF0
aF0
aF0
aa(lp2063
F0
aF0
aF0
aF0
aF0
aa(lp2064
F0
aF0
aF0
aF0
aF0
aa(lp2065
F0
aF0
aF0
aF0
aF0
aa(lp2066
F0
aF0
aF0
aF0
aF0
aa(lp2067
F0
aF0
aF0
aF0
aF0
aa(lp2068
F0
aF0
aF0
aF0
aF0
aa(lp2069
F0
aF0
aF0
aF0
aF0
aa(lp2070
F0
aF0
aF0
aF0
aF0
aa(lp2071
F0
aF0
aF0
aF0
aF0
aa(lp2072
F0
aF0
aF0
aF0
aF0
aa(lp2073
F0
aF0
aF0
aF0
aF0
aa(lp2074
F0
aF0
aF0
aF0
aF0
aa(lp2075
F0
aF0
aF0
aF0
aF0
aa(lp2076
F0
aF0
aF0
aF0
aF0
aa(lp2077
F0
aF0
aF0
aF0
aF0
aa(lp2078
F0
aF0
aF0
aF0
aF0
aa(lp2079
F0
aF0
aF0
aF0
aF0
aa(lp2080
F0
aF0
aF0
aF0
aF0
aa(lp2081
F0
aF0
aF0
aF0
aF0
aa(lp2082
F0
aF0
aF0
aF0
aF0
aa(lp2083
F0
aF0
aF0
aF0
aF0
aa(lp2084
F0
aF0
aF0
aF0
aF0
aa(lp2085
F0
aF0
aF0
aF0
aF0
aa(lp2086
F0
aF0
aF0
aF0
aF0
aa(lp2087
F0
aF0
aF0
aF0
aF0
aa(lp2088
F0
aF0
aF0
aF0
aF0
aa(lp2089
F0
aF0
aF0
aF0
aF0
aaa(lp2090
(lp2091
F0
aF0
aF0
aF0
aF0
aa(lp2092
F0
aF0
aF0
aF0
aF0
aa(lp2093
F0
aF0
aF0
aF0
aF0
aa(lp2094
F0
aF0
aF0
aF0
aF0
aa(lp2095
F0
aF0
aF0
aF0
aF0
aa(lp2096
F0
aF0
aF0
aF0
aF0
aa(lp2097
F0
aF0
aF0
aF0
aF0
aa(lp2098
F0
aF0
aF0
aF0
aF0
aa(lp2099
F0
aF0
aF0
aF0
aF0
aa(lp2100
F0
aF0
aF0
aF0
aF0
aa(lp2101
F0
aF0
aF0
aF0
aF0
aa(lp2102
F0
aF0
aF0
aF0
aF0
aa(lp2103
F0
aF0
aF0
aF0
aF0
aa(lp2104
F0
aF0
aF0
aF0
aF0
aa(lp2105
F0
aF0
aF0
aF0
aF0
aa(lp2106
F0
aF0
aF0
aF0
aF0
aa(lp2107
F0
aF0
aF0
aF0
aF0
aa(lp2108
F0
aF0
aF0
aF0
aF0
aa(lp2109
F0
aF0
aF0
aF0
aF0
aa(lp2110
F0
aF0
aF0
aF0
aF0
aa(lp2111
F0
aF0
aF0
aF0
aF0
aa(lp2112
F0
aF0
aF0
aF0
aF0
aa(lp2113
F1
aF1
aF0
aF1
aF0
aa(lp2114
F0
aF0
aF0
aF0
aF0
aa(lp2115
F0
aF0
aF0
aF0
aF0
aa(lp2116
F0
aF0
aF0
aF0
aF0
aa(lp2117
F0
aF0
aF0
aF0
aF0
aa(lp2118
F0
aF0
aF0
aF0
aF0
aa(lp2119
F0
aF0
aF0
aF0
aF0
aa(lp2120
F0
aF0
aF0
aF0
aF0
aa(lp2121
F0
aF0
aF0
aF0
aF0
aa(lp2122
F0
aF0
aF0
aF0
aF0
aa(lp2123
F0
aF0
aF0
aF0
aF0
aa(lp2124
F0
aF0
aF0
aF0
aF0
aa(lp2125
F0
aF0
aF0
aF0
aF0
aa(lp2126
F0
aF0
aF0
aF0
aF0
aa(lp2127
F0
aF0
aF0
aF0
aF0
aa(lp2128
F0
aF0
aF0
aF0
aF0
aa(lp2129
F0
aF0
aF0
aF0
aF0
aa(lp2130
F0
aF0
aF0
aF0
aF0
aa(lp2131
F0
aF0
aF0
aF0
aF0
aa(lp2132
F0
aF0
aF0
aF0
aF0
aa(lp2133
F0
aF0
aF0
aF0
aF0
aa(lp2134
F0
aF0
aF0
aF0
aF0
aa(lp2135
F0
aF0
aF0
aF0
aF0
aa(lp2136
F0
aF0
aF0
aF0
aF0
aa(lp2137
F0
aF0
aF0
aF0
aF0
aa(lp2138
F0
aF0
aF0
aF0
aF0
aa(lp2139
F0
aF0
aF0
aF0
aF0
aa(lp2140
F0
aF0
aF0
aF0
aF0
aa(lp2141
F0
aF0
aF0
aF0
aF0
aa(lp2142
F0
aF0
aF0
aF0
aF0
aa(lp2143
F0
aF0
aF0
aF0
aF0
aa(lp2144
F0
aF0
aF0
aF0
aF0
aa(lp2145
F0
aF0
aF0
aF0
aF0
aa(lp2146
F0
aF0
aF0
aF0
aF0
aa(lp2147
F0
aF0
aF0
aF0
aF0
aa(lp2148
F0
aF0
aF0
aF0
aF0
aa(lp2149
F0
aF0
aF0
aF0
aF0
aa(lp2150
F0
aF0
aF0
aF0
aF0
aa(lp2151
F0
aF0
aF0
aF0
aF0
aa(lp2152
F0
aF0
aF0
aF0
aF0
aa(lp2153
F0
aF0
aF0
aF0
aF0
aa(lp2154
F0
aF0
aF0
aF0
aF0
aa(lp2155
F0
aF0
aF0
aF0
aF0
aa(lp2156
F0
aF0
aF0
aF0
aF0
aa(lp2157
F0
aF0
aF0
aF0
aF0
aa(lp2158
F0
aF0
aF0
aF0
aF0
aa(lp2159
F0
aF0
aF0
aF0
aF0
aa(lp2160
F0
aF0
aF0
aF0
aF0
aa(lp2161
F0
aF0
aF0
aF0
aF0
aa(lp2162
F0
aF0
aF0
aF0
aF0
aa(lp2163
F0
aF0
aF0
aF0
aF0
aa(lp2164
F0
aF0
aF0
aF0
aF0
aa(lp2165
F0
aF0
aF0
aF0
aF0
aa(lp2166
F0
aF0
aF0
aF0
aF0
aa(lp2167
F0
aF0
aF0
aF0
aF0
aa(lp2168
F0
aF0
aF0
aF0
aF0
aa(lp2169
F0
aF0
aF0
aF0
aF0
aa(lp2170
F0
aF0
aF0
aF0
aF0
aa(lp2171
F0
aF0
aF0
aF0
aF0
aa(lp2172
F0
aF0
aF0
aF0
aF0
aa(lp2173
F0
aF0
aF0
aF0
aF0
aa(lp2174
F0
aF0
aF0
aF0
aF0
aa(lp2175
F0
aF0
aF0
aF0
aF0
aa(lp2176
F0
aF0
aF0
aF0
aF0
aaa(lp2177
(lp2178
F0
aF0
aF0
aF0
aF0
aa(lp2179
F0
aF0
aF0
aF0
aF0
aa(lp2180
F0
aF0
aF0
aF0
aF0
aa(lp2181
F0
aF0
aF0
aF0
aF0
aa(lp2182
F0
aF0
aF0
aF0
aF0
aa(lp2183
F0
aF0
aF0
aF0
aF0
aa(lp2184
F0
aF0
aF0
aF0
aF0
aa(lp2185
F0
aF0
aF0
aF0
aF0
aa(lp2186
F0
aF0
aF0
aF0
aF0
aa(lp2187
F0
aF0
aF0
aF0
aF0
aa(lp2188
F0
aF0
aF0
aF0
aF0
aa(lp2189
F0
aF0
aF0
aF0
aF0
aa(lp2190
F0
aF0
aF0
aF0
aF0
aa(lp2191
F0
aF0
aF0
aF0
aF0
aa(lp2192
F0
aF0
aF0
aF0
aF0
aa(lp2193
F0
aF0
aF0
aF0
aF0
aa(lp2194
F0
aF0
aF0
aF0
aF0
aa(lp2195
F0
aF0
aF0
aF0
aF0
aa(lp2196
F0
aF0
aF0
aF0
aF0
aa(lp2197
F0
aF0
aF0
aF0
aF0
aa(lp2198
F0
aF0
aF0
aF0
aF0
aa(lp2199
F0
aF0
aF0
aF0
aF0
aa(lp2200
F0
aF0
aF0
aF0
aF0
aa(lp2201
F0
aF0
aF0
aF0
aF0
aa(lp2202
F0
aF0
aF0
aF0
aF0
aa(lp2203
F0
aF0
aF0
aF0
aF0
aa(lp2204
F0
aF0
aF0
aF0
aF0
aa(lp2205
F0
aF0
aF0
aF0
aF0
aa(lp2206
F0
aF0
aF0
aF0
aF0
aa(lp2207
F0
aF0
aF0
aF0
aF0
aa(lp2208
F0
aF0
aF0
aF0
aF0
aa(lp2209
F0
aF0
aF0
aF0
aF0
aa(lp2210
F0
aF0
aF0
aF0
aF0
aa(lp2211
F0
aF0
aF0
aF0
aF0
aa(lp2212
F0
aF0
aF0
aF0
aF0
aa(lp2213
F0
aF0
aF0
aF0
aF0
aa(lp2214
F0
aF0
aF0
aF0
aF0
aa(lp2215
F0
aF0
aF0
aF0
aF0
aa(lp2216
F0
aF0
aF0
aF0
aF0
aa(lp2217
F0
aF0
aF0
aF0
aF0
aa(lp2218
F0
aF0
aF0
aF0
aF0
aa(lp2219
F0
aF0
aF0
aF0
aF0
aa(lp2220
F0
aF0
aF0
aF0
aF0
aa(lp2221
F0
aF0
aF0
aF0
aF0
aa(lp2222
F0
aF0
aF0
aF0
aF0
aa(lp2223
F0
aF0
aF0
aF0
aF0
aa(lp2224
F0
aF0
aF0
aF0
aF0
aa(lp2225
F1
aF0
aF0
aF1
aF0
aa(lp2226
F0
aF0
aF0
aF0
aF0
aa(lp2227
F0
aF0
aF0
aF0
aF0
aa(lp2228
F0
aF0
aF0
aF0
aF0
aa(lp2229
F0
aF0
aF0
aF0
aF0
aa(lp2230
F0
aF0
aF0
aF0
aF0
aa(lp2231
F0
aF0
aF0
aF0
aF0
aa(lp2232
F0
aF0
aF0
aF0
aF0
aa(lp2233
F0
aF0
aF0
aF0
aF0
aa(lp2234
F0
aF0
aF0
aF0
aF0
aa(lp2235
F0
aF0
aF0
aF0
aF0
aa(lp2236
F0
aF0
aF0
aF0
aF0
aa(lp2237
F0
aF0
aF0
aF0
aF0
aa(lp2238
F0
aF0
aF0
aF0
aF0
aa(lp2239
F0
aF0
aF0
aF0
aF0
aa(lp2240
F0
aF0
aF0
aF0
aF0
aa(lp2241
F0
aF0
aF0
aF0
aF0
aa(lp2242
F0
aF0
aF0
aF0
aF0
aa(lp2243
F0
aF0
aF0
aF0
aF0
aa(lp2244
F0
aF0
aF0
aF0
aF0
aa(lp2245
F0
aF0
aF0
aF0
aF0
aa(lp2246
F0
aF0
aF0
aF0
aF0
aa(lp2247
F0
aF0
aF0
aF0
aF0
aa(lp2248
F0
aF0
aF0
aF0
aF0
aa(lp2249
F0
aF0
aF0
aF0
aF0
aa(lp2250
F0
aF0
aF0
aF0
aF0
aa(lp2251
F0
aF0
aF0
aF0
aF0
aa(lp2252
F0
aF0
aF0
aF0
aF0
aa(lp2253
F0
aF0
aF0
aF0
aF0
aa(lp2254
F0
aF0
aF0
aF0
aF0
aa(lp2255
F0
aF0
aF0
aF0
aF0
aa(lp2256
F0
aF0
aF0
aF0
aF0
aa(lp2257
F0
aF0
aF0
aF0
aF0
aa(lp2258
F0
aF0
aF0
aF0
aF0
aa(lp2259
F0
aF0
aF0
aF0
aF0
aa(lp2260
F0
aF0
aF0
aF0
aF0
aa(lp2261
F0
aF0
aF0
aF0
aF0
aa(lp2262
F0
aF0
aF0
aF0
aF0
aa(lp2263
F0
aF0
aF0
aF0
aF0
aaa(lp2264
(lp2265
F0
aF0
aF0
aF0
aF0
aa(lp2266
F0
aF0
aF0
aF0
aF0
aa(lp2267
F0
aF0
aF0
aF0
aF0
aa(lp2268
F0
aF0
aF0
aF0
aF0
aa(lp2269
F0
aF0
aF0
aF0
aF0
aa(lp2270
F0
aF0
aF0
aF0
aF0
aa(lp2271
F0
aF0
aF0
aF0
aF0
aa(lp2272
F0
aF0
aF0
aF0
aF0
aa(lp2273
F0
aF0
aF0
aF0
aF0
aa(lp2274
F0
aF0
aF0
aF0
aF0
aa(lp2275
F0
aF0
aF0
aF0
aF0
aa(lp2276
F0
aF0
aF0
aF0
aF0
aa(lp2277
F0
aF0
aF0
aF0
aF0
aa(lp2278
F0
aF0
aF0
aF0
aF0
aa(lp2279
F0
aF0
aF0
aF0
aF0
aa(lp2280
F0
aF0
aF0
aF0
aF0
aa(lp2281
F1
aF0
aF0
aF1
aF0
aa(lp2282
F0
aF0
aF0
aF0
aF0
aa(lp2283
F0
aF0
aF0
aF0
aF0
aa(lp2284
F0
aF0
aF0
aF0
aF0
aa(lp2285
F0
aF0
aF0
aF0
aF0
aa(lp2286
F0
aF0
aF0
aF0
aF0
aa(lp2287
F0
aF0
aF0
aF0
aF0
aa(lp2288
F0
aF0
aF0
aF0
aF0
aa(lp2289
F0
aF0
aF0
aF0
aF0
aa(lp2290
F0
aF0
aF0
aF0
aF0
aa(lp2291
F0
aF0
aF0
aF0
aF0
aa(lp2292
F0
aF0
aF0
aF0
aF0
aa(lp2293
F0
aF0
aF0
aF0
aF0
aa(lp2294
F0
aF0
aF0
aF0
aF0
aa(lp2295
F0
aF0
aF0
aF0
aF0
aa(lp2296
F0
aF0
aF0
aF0
aF0
aa(lp2297
F0
aF0
aF0
aF0
aF0
aa(lp2298
F0
aF0
aF0
aF0
aF0
aa(lp2299
F0
aF0
aF0
aF0
aF0
aa(lp2300
F0
aF0
aF0
aF0
aF0
aa(lp2301
F0
aF0
aF0
aF0
aF0
aa(lp2302
F0
aF0
aF0
aF0
aF0
aa(lp2303
F0
aF0
aF0
aF0
aF0
aa(lp2304
F0
aF0
aF0
aF0
aF0
aa(lp2305
F0
aF0
aF0
aF0
aF0
aa(lp2306
F0
aF0
aF0
aF0
aF0
aa(lp2307
F0
aF0
aF0
aF0
aF0
aa(lp2308
F0
aF0
aF0
aF0
aF0
aa(lp2309
F0
aF0
aF0
aF0
aF0
aa(lp2310
F0
aF0
aF0
aF0
aF0
aa(lp2311
F0
aF0
aF0
aF0
aF0
aa(lp2312
F0
aF0
aF0
aF0
aF0
aa(lp2313
F0
aF0
aF0
aF0
aF0
aa(lp2314
F0
aF0
aF0
aF0
aF0
aa(lp2315
F0
aF0
aF0
aF0
aF0
aa(lp2316
F0
aF0
aF0
aF0
aF0
aa(lp2317
F0
aF0
aF0
aF0
aF0
aa(lp2318
F0
aF0
aF0
aF0
aF0
aa(lp2319
F0
aF0
aF0
aF0
aF0
aa(lp2320
F0
aF0
aF0
aF0
aF0
aa(lp2321
F0
aF0
aF0
aF0
aF0
aa(lp2322
F0
aF0
aF0
aF0
aF0
aa(lp2323
F0
aF0
aF0
aF0
aF0
aa(lp2324
F0
aF0
aF0
aF0
aF0
aa(lp2325
F0
aF0
aF0
aF0
aF0
aa(lp2326
F0
aF0
aF0
aF0
aF0
aa(lp2327
F0
aF0
aF0
aF0
aF0
aa(lp2328
F0
aF0
aF0
aF0
aF0
aa(lp2329
F0
aF0
aF0
aF0
aF0
aa(lp2330
F0
aF0
aF0
aF0
aF0
aa(lp2331
F0
aF0
aF0
aF0
aF0
aa(lp2332
F0
aF0
aF0
aF0
aF0
aa(lp2333
F0
aF0
aF0
aF0
aF0
aa(lp2334
F0
aF0
aF0
aF0
aF0
aa(lp2335
F0
aF0
aF0
aF0
aF0
aa(lp2336
F0
aF0
aF0
aF0
aF0
aa(lp2337
F0
aF0
aF0
aF0
aF0
aa(lp2338
F0
aF0
aF0
aF0
aF0
aa(lp2339
F0
aF0
aF0
aF0
aF0
aa(lp2340
F0
aF0
aF0
aF0
aF0
aa(lp2341
F0
aF0
aF0
aF0
aF0
aa(lp2342
F0
aF0
aF0
aF0
aF0
aa(lp2343
F0
aF0
aF0
aF0
aF0
aa(lp2344
F0
aF0
aF0
aF0
aF0
aa(lp2345
F0
aF0
aF0
aF0
aF0
aa(lp2346
F0
aF0
aF0
aF0
aF0
aa(lp2347
F0
aF0
aF0
aF0
aF0
aa(lp2348
F0
aF0
aF0
aF0
aF0
aa(lp2349
F0
aF0
aF0
aF0
aF0
aa(lp2350
F0
aF0
aF0
aF0
aF0
aaa(lp2351
(lp2352
F0
aF0
aF0
aF0
aF0
aa(lp2353
F0
aF0
aF0
aF0
aF0
aa(lp2354
F0
aF0
aF0
aF0
aF0
aa(lp2355
F0
aF0
aF0
aF0
aF0
aa(lp2356
F0
aF0
aF0
aF0
aF0
aa(lp2357
F0
aF0
aF0
aF0
aF0
aa(lp2358
F0
aF0
aF0
aF0
aF0
aa(lp2359
F0
aF0
aF0
aF0
aF0
aa(lp2360
F0
aF0
aF0
aF0
aF0
aa(lp2361
F0
aF0
aF0
aF0
aF0
aa(lp2362
F0
aF0
aF0
aF0
aF0
aa(lp2363
F1
aF0
aF0
aF1
aF0
aa(lp2364
F0
aF0
aF0
aF0
aF0
aa(lp2365
F0
aF0
aF0
aF0
aF0
aa(lp2366
F0
aF0
aF0
aF0
aF0
aa(lp2367
F0
aF0
aF0
aF0
aF0
aa(lp2368
F0
aF0
aF0
aF0
aF0
aa(lp2369
F0
aF0
aF0
aF0
aF0
aa(lp2370
F0
aF0
aF0
aF0
aF0
aa(lp2371
F0
aF0
aF0
aF0
aF0
aa(lp2372
F0
aF0
aF0
aF0
aF0
aa(lp2373
F0
aF0
aF0
aF0
aF0
aa(lp2374
F0
aF0
aF0
aF0
aF0
aa(lp2375
F0
aF0
aF0
aF0
aF0
aa(lp2376
F0
aF0
aF0
aF0
aF0
aa(lp2377
F0
aF0
aF0
aF0
aF0
aa(lp2378
F0
aF0
aF0
aF0
aF0
aa(lp2379
F0
aF0
aF0
aF0
aF0
aa(lp2380
F0
aF0
aF0
aF0
aF0
aa(lp2381
F0
aF0
aF0
aF0
aF0
aa(lp2382
F0
aF0
aF0
aF0
aF0
aa(lp2383
F0
aF0
aF0
aF0
aF0
aa(lp2384
F0
aF0
aF0
aF0
aF0
aa(lp2385
F0
aF0
aF0
aF0
aF0
aa(lp2386
F0
aF0
aF0
aF0
aF0
aa(lp2387
F0
aF0
aF0
aF0
aF0
aa(lp2388
F0
aF0
aF0
aF0
aF0
aa(lp2389
F0
aF0
aF0
aF0
aF0
aa(lp2390
F0
aF0
aF0
aF0
aF0
aa(lp2391
F0
aF0
aF0
aF0
aF0
aa(lp2392
F0
aF0
aF0
aF0
aF0
aa(lp2393
F0
aF0
aF0
aF0
aF0
aa(lp2394
F0
aF0
aF0
aF0
aF0
aa(lp2395
F0
aF0
aF0
aF0
aF0
aa(lp2396
F0
aF0
aF0
aF0
aF0
aa(lp2397
F0
aF0
aF0
aF0
aF0
aa(lp2398
F0
aF0
aF0
aF0
aF0
aa(lp2399
F0
aF0
aF0
aF0
aF0
aa(lp2400
F0
aF0
aF0
aF0
aF0
aa(lp2401
F0
aF0
aF0
aF0
aF0
aa(lp2402
F0
aF0
aF0
aF0
aF0
aa(lp2403
F0
aF0
aF0
aF0
aF0
aa(lp2404
F0
aF0
aF0
aF0
aF0
aa(lp2405
F0
aF0
aF0
aF0
aF0
aa(lp2406
F0
aF0
aF0
aF0
aF0
aa(lp2407
F0
aF0
aF0
aF0
aF0
aa(lp2408
F0
aF0
aF0
aF0
aF0
aa(lp2409
F0
aF0
aF0
aF0
aF0
aa(lp2410
F0
aF0
aF0
aF0
aF0
aa(lp2411
F0
aF0
aF0
aF0
aF0
aa(lp2412
F0
aF0
aF0
aF0
aF0
aa(lp2413
F0
aF0
aF0
aF0
aF0
aa(lp2414
F0
aF0
aF0
aF0
aF0
aa(lp2415
F0
aF0
aF0
aF0
aF0
aa(lp2416
F0
aF0
aF0
aF0
aF0
aa(lp2417
F0
aF0
aF0
aF0
aF0
aa(lp2418
F0
aF0
aF0
aF0
aF0
aa(lp2419
F0
aF0
aF0
aF0
aF0
aa(lp2420
F0
aF0
aF0
aF0
aF0
aa(lp2421
F0
aF0
aF0
aF0
aF0
aa(lp2422
F0
aF0
aF0
aF0
aF0
aa(lp2423
F0
aF0
aF0
aF0
aF0
aa(lp2424
F0
aF0
aF0
aF0
aF0
aa(lp2425
F0
aF0
aF0
aF0
aF0
aa(lp2426
F0
aF0
aF0
aF0
aF0
aa(lp2427
F0
aF0
aF0
aF0
aF0
aa(lp2428
F0
aF0
aF0
aF0
aF0
aa(lp2429
F0
aF0
aF0
aF0
aF0
aa(lp2430
F0
aF0
aF0
aF0
aF0
aa(lp2431
F0
aF0
aF0
aF0
aF0
aa(lp2432
F0
aF0
aF0
aF0
aF0
aa(lp2433
F0
aF0
aF0
aF0
aF0
aa(lp2434
F0
aF0
aF0
aF0
aF0
aa(lp2435
F0
aF0
aF0
aF0
aF0
aa(lp2436
F0
aF0
aF0
aF0
aF0
aa(lp2437
F0
aF0
aF0
aF0
aF0
aaa(lp2438
(lp2439
F0
aF0
aF0
aF0
aF0
aa(lp2440
F0
aF0
aF0
aF0
aF0
aa(lp2441
F0
aF0
aF0
aF0
aF0
aa(lp2442
F0
aF0
aF0
aF0
aF0
aa(lp2443
F0
aF0
aF0
aF0
aF0
aa(lp2444
F0
aF0
aF0
aF0
aF0
aa(lp2445
F0
aF0
aF0
aF0
aF0
aa(lp2446
F0
aF0
aF0
aF0
aF0
aa(lp2447
F0
aF0
aF0
aF0
aF0
aa(lp2448
F0
aF0
aF0
aF0
aF0
aa(lp2449
F0
aF0
aF0
aF0
aF0
aa(lp2450
F0
aF0
aF0
aF0
aF0
aa(lp2451
F0
aF0
aF0
aF0
aF0
aa(lp2452
F0
aF0
aF0
aF0
aF0
aa(lp2453
F0
aF0
aF0
aF0
aF0
aa(lp2454
F0
aF0
aF0
aF0
aF0
aa(lp2455
F0
aF0
aF0
aF0
aF0
aa(lp2456
F0
aF0
aF0
aF0
aF0
aa(lp2457
F0
aF0
aF0
aF0
aF0
aa(lp2458
F0
aF0
aF0
aF0
aF0
aa(lp2459
F0
aF0
aF0
aF0
aF0
aa(lp2460
F0
aF0
aF0
aF0
aF0
aa(lp2461
F0
aF0
aF0
aF0
aF0
aa(lp2462
F0
aF0
aF0
aF0
aF0
aa(lp2463
F0
aF0
aF0
aF0
aF0
aa(lp2464
F0
aF0
aF0
aF0
aF0
aa(lp2465
F1
aF1
aF0
aF1
aF0
aa(lp2466
F0
aF0
aF0
aF0
aF0
aa(lp2467
F0
aF0
aF0
aF0
aF0
aa(lp2468
F0
aF0
aF0
aF0
aF0
aa(lp2469
F0
aF0
aF0
aF0
aF0
aa(lp2470
F0
aF0
aF0
aF0
aF0
aa(lp2471
F0
aF0
aF0
aF0
aF0
aa(lp2472
F0
aF0
aF0
aF0
aF0
aa(lp2473
F0
aF0
aF0
aF0
aF0
aa(lp2474
F0
aF0
aF0
aF0
aF0
aa(lp2475
F0
aF0
aF0
aF0
aF0
aa(lp2476
F0
aF0
aF0
aF0
aF0
aa(lp2477
F0
aF0
aF0
aF0
aF0
aa(lp2478
F0
aF0
aF0
aF0
aF0
aa(lp2479
F0
aF0
aF0
aF0
aF0
aa(lp2480
F0
aF0
aF0
aF0
aF0
aa(lp2481
F0
aF0
aF0
aF0
aF0
aa(lp2482
F0
aF0
aF0
aF0
aF0
aa(lp2483
F0
aF0
aF0
aF0
aF0
aa(lp2484
F0
aF0
aF0
aF0
aF0
aa(lp2485
F0
aF0
aF0
aF0
aF0
aa(lp2486
F0
aF0
aF0
aF0
aF0
aa(lp2487
F0
aF0
aF0
aF0
aF0
aa(lp2488
F0
aF0
aF0
aF0
aF0
aa(lp2489
F0
aF0
aF0
aF0
aF0
aa(lp2490
F0
aF0
aF0
aF0
aF0
aa(lp2491
F0
aF0
aF0
aF0
aF0
aa(lp2492
F0
aF0
aF0
aF0
aF0
aa(lp2493
F0
aF0
aF0
aF0
aF0
aa(lp2494
F0
aF0
aF0
aF0
aF0
aa(lp2495
F0
aF0
aF0
aF0
aF0
aa(lp2496
F0
aF0
aF0
aF0
aF0
aa(lp2497
F0
aF0
aF0
aF0
aF0
aa(lp2498
F0
aF0
aF0
aF0
aF0
aa(lp2499
F0
aF0
aF0
aF0
aF0
aa(lp2500
F0
aF0
aF0
aF0
aF0
aa(lp2501
F0
aF0
aF0
aF0
aF0
aa(lp2502
F0
aF0
aF0
aF0
aF0
aa(lp2503
F0
aF0
aF0
aF0
aF0
aa(lp2504
F0
aF0
aF0
aF0
aF0
aa(lp2505
F0
aF0
aF0
aF0
aF0
aa(lp2506
F0
aF0
aF0
aF0
aF0
aa(lp2507
F0
aF0
aF0
aF0
aF0
aa(lp2508
F0
aF0
aF0
aF0
aF0
aa(lp2509
F0
aF0
aF0
aF0
aF0
aa(lp2510
F0
aF0
aF0
aF0
aF0
aa(lp2511
F0
aF0
aF0
aF0
aF0
aa(lp2512
F0
aF0
aF0
aF0
aF0
aa(lp2513
F0
aF0
aF0
aF0
aF0
aa(lp2514
F0
aF0
aF0
aF0
aF0
aa(lp2515
F0
aF0
aF0
aF0
aF0
aa(lp2516
F0
aF0
aF0
aF0
aF0
aa(lp2517
F0
aF0
aF0
aF0
aF0
aa(lp2518
F0
aF0
aF0
aF0
aF0
aa(lp2519
F0
aF0
aF0
aF0
aF0
aa(lp2520
F0
aF0
aF0
aF0
aF0
aa(lp2521
F0
aF0
aF0
aF0
aF0
aa(lp2522
F0
aF0
aF0
aF0
aF0
aa(lp2523
F0
aF0
aF0
aF0
aF0
aa(lp2524
F0
aF0
aF0
aF0
aF0
aaa(lp2525
(lp2526
F0
aF0
aF0
aF0
aF0
aa(lp2527
F0
aF0
aF0
aF0
aF0
aa(lp2528
F0
aF0
aF0
aF0
aF0
aa(lp2529
F0
aF0
aF0
aF0
aF0
aa(lp2530
F0
aF0
aF0
aF0
aF0
aa(lp2531
F0
aF0
aF0
aF0
aF0
aa(lp2532
F0
aF0
aF0
aF0
aF0
aa(lp2533
F0
aF0
aF0
aF0
aF0
aa(lp2534
F0
aF0
aF0
aF0
aF0
aa(lp2535
F0
aF0
aF0
aF0
aF0
aa(lp2536
F0
aF0
aF0
aF0
aF0
aa(lp2537
F0
aF0
aF0
aF0
aF0
aa(lp2538
F0
aF0
aF0
aF0
aF0
aa(lp2539
F0
aF0
aF0
aF0
aF0
aa(lp2540
F0
aF0
aF0
aF0
aF0
aa(lp2541
F0
aF0
aF0
aF0
aF0
aa(lp2542
F0
aF0
aF0
aF0
aF0
aa(lp2543
F0
aF0
aF0
aF0
aF0
aa(lp2544
F0
aF0
aF0
aF0
aF0
aa(lp2545
F1
aF0
aF0
aF1
aF0
aa(lp2546
F0
aF0
aF0
aF0
aF0
aa(lp2547
F0
aF0
aF0
aF0
aF0
aa(lp2548
F0
aF0
aF0
aF0
aF0
aa(lp2549
F0
aF0
aF0
aF0
aF0
aa(lp2550
F0
aF0
aF0
aF0
aF0
aa(lp2551
F0
aF0
aF0
aF0
aF0
aa(lp2552
F0
aF0
aF0
aF0
aF0
aa(lp2553
F0
aF0
aF0
aF0
aF0
aa(lp2554
F0
aF0
aF0
aF0
aF0
aa(lp2555
F0
aF0
aF0
aF0
aF0
aa(lp2556
F0
aF0
aF0
aF0
aF0
aa(lp2557
F0
aF0
aF0
aF0
aF0
aa(lp2558
F0
aF0
aF0
aF0
aF0
aa(lp2559
F0
aF0
aF0
aF0
aF0
aa(lp2560
F0
aF0
aF0
aF0
aF0
aa(lp2561
F0
aF0
aF0
aF0
aF0
aa(lp2562
F0
aF0
aF0
aF0
aF0
aa(lp2563
F0
aF0
aF0
aF0
aF0
aa(lp2564
F0
aF0
aF0
aF0
aF0
aa(lp2565
F0
aF0
aF0
aF0
aF0
aa(lp2566
F0
aF0
aF0
aF0
aF0
aa(lp2567
F0
aF0
aF0
aF0
aF0
aa(lp2568
F0
aF0
aF0
aF0
aF0
aa(lp2569
F0
aF0
aF0
aF0
aF0
aa(lp2570
F0
aF0
aF0
aF0
aF0
aa(lp2571
F0
aF0
aF0
aF0
aF0
aa(lp2572
F0
aF0
aF0
aF0
aF0
aa(lp2573
F0
aF0
aF0
aF0
aF0
aa(lp2574
F0
aF0
aF0
aF0
aF0
aa(lp2575
F0
aF0
aF0
aF0
aF0
aa(lp2576
F0
aF0
aF0
aF0
aF0
aa(lp2577
F0
aF0
aF0
aF0
aF0
aa(lp2578
F0
aF0
aF0
aF0
aF0
aa(lp2579
F0
aF0
aF0
aF0
aF0
aa(lp2580
F0
aF0
aF0
aF0
aF0
aa(lp2581
F0
aF0
aF0
aF0
aF0
aa(lp2582
F0
aF0
aF0
aF0
aF0
aa(lp2583
F0
aF0
aF0
aF0
aF0
aa(lp2584
F0
aF0
aF0
aF0
aF0
aa(lp2585
F0
aF0
aF0
aF0
aF0
aa(lp2586
F0
aF0
aF0
aF0
aF0
aa(lp2587
F0
aF0
aF0
aF0
aF0
aa(lp2588
F0
aF0
aF0
aF0
aF0
aa(lp2589
F0
aF0
aF0
aF0
aF0
aa(lp2590
F0
aF0
aF0
aF0
aF0
aa(lp2591
F0
aF0
aF0
aF0
aF0
aa(lp2592
F0
aF0
aF0
aF0
aF0
aa(lp2593
F0
aF0
aF0
aF0
aF0
aa(lp2594
F0
aF0
aF0
aF0
aF0
aa(lp2595
F0
aF0
aF0
aF0
aF0
aa(lp2596
F0
aF0
aF0
aF0
aF0
aa(lp2597
F0
aF0
aF0
aF0
aF0
aa(lp2598
F0
aF0
aF0
aF0
aF0
aa(lp2599
F0
aF0
aF0
aF0
aF0
aa(lp2600
F0
aF0
aF0
aF0
aF0
aa(lp2601
F0
aF0
aF0
aF0
aF0
aa(lp2602
F0
aF0
aF0
aF0
aF0
aa(lp2603
F0
aF0
aF0
aF0
aF0
aa(lp2604
F0
aF0
aF0
aF0
aF0
aa(lp2605
F0
aF0
aF0
aF0
aF0
aa(lp2606
F0
aF0
aF0
aF0
aF0
aa(lp2607
F0
aF0
aF0
aF0
aF0
aa(lp2608
F0
aF0
aF0
aF0
aF0
aa(lp2609
F0
aF0
aF0
aF0
aF0
aa(lp2610
F0
aF0
aF0
aF0
aF0
aa(lp2611
F0
aF0
aF0
aF0
aF0
aaa(lp2612
(lp2613
F0
aF0
aF0
aF0
aF0
aa(lp2614
F0
aF0
aF0
aF0
aF0
aa(lp2615
F0
aF0
aF0
aF0
aF0
aa(lp2616
F0
aF0
aF0
aF0
aF0
aa(lp2617
F0
aF0
aF0
aF0
aF0
aa(lp2618
F0
aF0
aF0
aF0
aF0
aa(lp2619
F0
aF0
aF0
aF0
aF0
aa(lp2620
F0
aF0
aF0
aF0
aF0
aa(lp2621
F0
aF0
aF0
aF0
aF0
aa(lp2622
F0
aF0
aF0
aF0
aF0
aa(lp2623
F0
aF0
aF0
aF0
aF0
aa(lp2624
F0
aF0
aF0
aF0
aF0
aa(lp2625
F0
aF0
aF0
aF0
aF0
aa(lp2626
F0
aF0
aF0
aF0
aF0
aa(lp2627
F0
aF0
aF0
aF0
aF0
aa(lp2628
F0
aF0
aF0
aF0
aF0
aa(lp2629
F0
aF0
aF0
aF0
aF0
aa(lp2630
F0
aF0
aF0
aF0
aF0
aa(lp2631
F1
aF0
aF0
aF1
aF0
aa(lp2632
F0
aF0
aF0
aF0
aF0
aa(lp2633
F0
aF0
aF0
aF0
aF0
aa(lp2634
F0
aF0
aF0
aF0
aF0
aa(lp2635
F0
aF0
aF0
aF0
aF0
aa(lp2636
F0
aF0
aF0
aF0
aF0
aa(lp2637
F0
aF0
aF0
aF0
aF0
aa(lp2638
F0
aF0
aF0
aF0
aF0
aa(lp2639
F0
aF0
aF0
aF0
aF0
aa(lp2640
F0
aF0
aF0
aF0
aF0
aa(lp2641
F0
aF0
aF0
aF0
aF0
aa(lp2642
F0
aF0
aF0
aF0
aF0
aa(lp2643
F0
aF0
aF0
aF0
aF0
aa(lp2644
F0
aF0
aF0
aF0
aF0
aa(lp2645
F0
aF0
aF0
aF0
aF0
aa(lp2646
F0
aF0
aF0
aF0
aF0
aa(lp2647
F0
aF0
aF0
aF0
aF0
aa(lp2648
F0
aF0
aF0
aF0
aF0
aa(lp2649
F0
aF0
aF0
aF0
aF0
aa(lp2650
F0
aF0
aF0
aF0
aF0
aa(lp2651
F0
aF0
aF0
aF0
aF0
aa(lp2652
F0
aF0
aF0
aF0
aF0
aa(lp2653
F0
aF0
aF0
aF0
aF0
aa(lp2654
F0
aF0
aF0
aF0
aF0
aa(lp2655
F0
aF0
aF0
aF0
aF0
aa(lp2656
F0
aF0
aF0
aF0
aF0
aa(lp2657
F0
aF0
aF0
aF0
aF0
aa(lp2658
F0
aF0
aF0
aF0
aF0
aa(lp2659
F0
aF0
aF0
aF0
aF0
aa(lp2660
F0
aF0
aF0
aF0
aF0
aa(lp2661
F0
aF0
aF0
aF0
aF0
aa(lp2662
F0
aF0
aF0
aF0
aF0
aa(lp2663
F0
aF0
aF0
aF0
aF0
aa(lp2664
F0
aF0
aF0
aF0
aF0
aa(lp2665
F0
aF0
aF0
aF0
aF0
aa(lp2666
F0
aF0
aF0
aF0
aF0
aa(lp2667
F0
aF0
aF0
aF0
aF0
aa(lp2668
F0
aF0
aF0
aF0
aF0
aa(lp2669
F0
aF0
aF0
aF0
aF0
aa(lp2670
F0
aF0
aF0
aF0
aF0
aa(lp2671
F0
aF0
aF0
aF0
aF0
aa(lp2672
F0
aF0
aF0
aF0
aF0
aa(lp2673
F0
aF0
aF0
aF0
aF0
aa(lp2674
F0
aF0
aF0
aF0
aF0
aa(lp2675
F0
aF0
aF0
aF0
aF0
aa(lp2676
F0
aF0
aF0
aF0
aF0
aa(lp2677
F0
aF0
aF0
aF0
aF0
aa(lp2678
F0
aF0
aF0
aF0
aF0
aa(lp2679
F0
aF0
aF0
aF0
aF0
aa(lp2680
F0
aF0
aF0
aF0
aF0
aa(lp2681
F0
aF0
aF0
aF0
aF0
aa(lp2682
F0
aF0
aF0
aF0
aF0
aa(lp2683
F0
aF0
aF0
aF0
aF0
aa(lp2684
F0
aF0
aF0
aF0
aF0
aa(lp2685
F0
aF0
aF0
aF0
aF0
aa(lp2686
F0
aF0
aF0
aF0
aF0
aa(lp2687
F0
aF0
aF0
aF0
aF0
aa(lp2688
F0
aF0
aF0
aF0
aF0
aa(lp2689
F0
aF0
aF0
aF0
aF0
aa(lp2690
F0
aF0
aF0
aF0
aF0
aa(lp2691
F0
aF0
aF0
aF0
aF0
aa(lp2692
F0
aF0
aF0
aF0
aF0
aa(lp2693
F0
aF0
aF0
aF0
aF0
aa(lp2694
F0
aF0
aF0
aF0
aF0
aa(lp2695
F0
aF0
aF0
aF0
aF0
aa(lp2696
F0
aF0
aF0
aF0
aF0
aa(lp2697
F0
aF0
aF0
aF0
aF0
aa(lp2698
F0
aF0
aF0
aF0
aF0
aaa(lp2699
(lp2700
F0
aF0
aF0
aF0
aF0
aa(lp2701
F0
aF0
aF0
aF0
aF0
aa(lp2702
F0
aF0
aF0
aF0
aF0
aa(lp2703
F0
aF0
aF0
aF0
aF0
aa(lp2704
F0
aF0
aF0
aF0
aF0
aa(lp2705
F0
aF0
aF0
aF0
aF0
aa(lp2706
F0
aF0
aF0
aF0
aF0
aa(lp2707
F0
aF0
aF0
aF0
aF0
aa(lp2708
F0
aF0
aF0
aF0
aF0
aa(lp2709
F0
aF0
aF0
aF0
aF0
aa(lp2710
F0
aF0
aF0
aF0
aF0
aa(lp2711
F0
aF0
aF0
aF0
aF0
aa(lp2712
F0
aF0
aF0
aF0
aF0
aa(lp2713
F0
aF0
aF0
aF0
aF0
aa(lp2714
F0
aF0
aF0
aF0
aF0
aa(lp2715
F0
aF0
aF0
aF0
aF0
aa(lp2716
F0
aF0
aF0
aF0
aF0
aa(lp2717
F0
aF0
aF0
aF0
aF0
aa(lp2718
F0
aF0
aF0
aF0
aF0
aa(lp2719
F0
aF0
aF0
aF0
aF0
aa(lp2720
F0
aF0
aF0
aF0
aF0
aa(lp2721
F0
aF0
aF0
aF0
aF0
aa(lp2722
F0
aF0
aF0
aF0
aF0
aa(lp2723
F0
aF0
aF0
aF0
aF0
aa(lp2724
F0
aF0
aF0
aF0
aF0
aa(lp2725
F0
aF0
aF0
aF0
aF0
aa(lp2726
F0
aF0
aF0
aF0
aF0
aa(lp2727
F0
aF0
aF0
aF0
aF0
aa(lp2728
F0
aF0
aF0
aF0
aF0
aa(lp2729
F0
aF0
aF0
aF0
aF0
aa(lp2730
F0
aF0
aF0
aF0
aF0
aa(lp2731
F0
aF0
aF0
aF0
aF0
aa(lp2732
F0
aF0
aF0
aF0
aF0
aa(lp2733
F0
aF0
aF0
aF0
aF0
aa(lp2734
F0
aF0
aF0
aF0
aF0
aa(lp2735
F0
aF0
aF0
aF0
aF0
aa(lp2736
F0
aF0
aF0
aF0
aF0
aa(lp2737
F0
aF0
aF0
aF0
aF0
aa(lp2738
F1
aF0
aF0
aF1
aF0
aa(lp2739
F0
aF0
aF0
aF0
aF0
aa(lp2740
F0
aF0
aF0
aF0
aF0
aa(lp2741
F0
aF0
aF0
aF0
aF0
aa(lp2742
F0
aF0
aF0
aF0
aF0
aa(lp2743
F0
aF0
aF0
aF0
aF0
aa(lp2744
F0
aF0
aF0
aF0
aF0
aa(lp2745
F0
aF0
aF0
aF0
aF0
aa(lp2746
F0
aF0
aF0
aF0
aF0
aa(lp2747
F0
aF0
aF0
aF0
aF0
aa(lp2748
F0
aF0
aF0
aF0
aF0
aa(lp2749
F0
aF0
aF0
aF0
aF0
aa(lp2750
F0
aF0
aF0
aF0
aF0
aa(lp2751
F0
aF0
aF0
aF0
aF0
aa(lp2752
F0
aF0
aF0
aF0
aF0
aa(lp2753
F0
aF0
aF0
aF0
aF0
aa(lp2754
F0
aF0
aF0
aF0
aF0
aa(lp2755
F0
aF0
aF0
aF0
aF0
aa(lp2756
F0
aF0
aF0
aF0
aF0
aa(lp2757
F0
aF0
aF0
aF0
aF0
aa(lp2758
F0
aF0
aF0
aF0
aF0
aa(lp2759
F0
aF0
aF0
aF0
aF0
aa(lp2760
F0
aF0
aF0
aF0
aF0
aa(lp2761
F0
aF0
aF0
aF0
aF0
aa(lp2762
F0
aF0
aF0
aF0
aF0
aa(lp2763
F0
aF0
aF0
aF0
aF0
aa(lp2764
F0
aF0
aF0
aF0
aF0
aa(lp2765
F0
aF0
aF0
aF0
aF0
aa(lp2766
F0
aF0
aF0
aF0
aF0
aa(lp2767
F0
aF0
aF0
aF0
aF0
aa(lp2768
F0
aF0
aF0
aF0
aF0
aa(lp2769
F0
aF0
aF0
aF0
aF0
aa(lp2770
F0
aF0
aF0
aF0
aF0
aa(lp2771
F0
aF0
aF0
aF0
aF0
aa(lp2772
F0
aF0
aF0
aF0
aF0
aa(lp2773
F0
aF0
aF0
aF0
aF0
aa(lp2774
F0
aF0
aF0
aF0
aF0
aa(lp2775
F0
aF0
aF0
aF0
aF0
aa(lp2776
F0
aF0
aF0
aF0
aF0
aa(lp2777
F0
aF0
aF0
aF0
aF0
aa(lp2778
F0
aF0
aF0
aF0
aF0
aa(lp2779
F0
aF0
aF0
aF0
aF0
aa(lp2780
F0
aF0
aF0
aF0
aF0
aa(lp2781
F0
aF0
aF0
aF0
aF0
aa(lp2782
F0
aF0
aF0
aF0
aF0
aa(lp2783
F0
aF0
aF0
aF0
aF0
aa(lp2784
F0
aF0
aF0
aF0
aF0
aa(lp2785
F0
aF0
aF0
aF0
aF0
aaa(lp2786
(lp2787
F0
aF0
aF0
aF0
aF0
aa(lp2788
F0
aF0
aF0
aF0
aF0
aa(lp2789
F0
aF0
aF0
aF0
aF0
aa(lp2790
F0
aF0
aF0
aF0
aF0
aa(lp2791
F0
aF0
aF0
aF0
aF0
aa(lp2792
F0
aF0
aF0
aF0
aF0
aa(lp2793
F0
aF0
aF0
aF0
aF0
aa(lp2794
F0
aF0
aF0
aF0
aF0
aa(lp2795
F0
aF0
aF0
aF0
aF0
aa(lp2796
F0
aF0
aF0
aF0
aF0
aa(lp2797
F0
aF0
aF0
aF0
aF0
aa(lp2798
F0
aF0
aF0
aF0
aF0
aa(lp2799
F0
aF0
aF0
aF0
aF0
aa(lp2800
F0
aF0
aF0
aF0
aF0
aa(lp2801
F0
aF0
aF0
aF0
aF0
aa(lp2802
F0
aF0
aF0
aF0
aF0
aa(lp2803
F0
aF0
aF0
aF0
aF0
aa(lp2804
F0
aF0
aF0
aF0
aF0
aa(lp2805
F0
aF0
aF0
aF0
aF0
aa(lp2806
F0
aF0
aF0
aF0
aF0
aa(lp2807
F0
aF0
aF0
aF0
aF0
aa(lp2808
F0
aF0
aF0
aF0
aF0
aa(lp2809
F0
aF0
aF0
aF0
aF0
aa(lp2810
F0
aF0
aF0
aF0
aF0
aa(lp2811
F0
aF0
aF0
aF0
aF0
aa(lp2812
F0
aF0
aF0
aF0
aF0
aa(lp2813
F0
aF0
aF0
aF0
aF0
aa(lp2814
F1
aF0
aF0
aF1
aF0
aa(lp2815
F0
aF0
aF0
aF0
aF0
aa(lp2816
F0
aF0
aF0
aF0
aF0
aa(lp2817
F0
aF0
aF0
aF0
aF0
aa(lp2818
F0
aF0
aF0
aF0
aF0
aa(lp2819
F0
aF0
aF0
aF0
aF0
aa(lp2820
F0
aF0
aF0
aF0
aF0
aa(lp2821
F0
aF0
aF0
aF0
aF0
aa(lp2822
F0
aF0
aF0
aF0
aF0
aa(lp2823
F0
aF0
aF0
aF0
aF0
aa(lp2824
F0
aF0
aF0
aF0
aF0
aa(lp2825
F0
aF0
aF0
aF0
aF0
aa(lp2826
F0
aF0
aF0
aF0
aF0
aa(lp2827
F0
aF0
aF0
aF0
aF0
aa(lp2828
F0
aF0
aF0
aF0
aF0
aa(lp2829
F0
aF0
aF0
aF0
aF0
aa(lp2830
F0
aF0
aF0
aF0
aF0
aa(lp2831
F0
aF0
aF0
aF0
aF0
aa(lp2832
F0
aF0
aF0
aF0
aF0
aa(lp2833
F0
aF0
aF0
aF0
aF0
aa(lp2834
F0
aF0
aF0
aF0
aF0
aa(lp2835
F0
aF0
aF0
aF0
aF0
aa(lp2836
F0
aF0
aF0
aF0
aF0
aa(lp2837
F0
aF0
aF0
aF0
aF0
aa(lp2838
F0
aF0
aF0
aF0
aF0
aa(lp2839
F0
aF0
aF0
aF0
aF0
aa(lp2840
F0
aF0
aF0
aF0
aF0
aa(lp2841
F0
aF0
aF0
aF0
aF0
aa(lp2842
F0
aF0
aF0
aF0
aF0
aa(lp2843
F0
aF0
aF0
aF0
aF0
aa(lp2844
F0
aF0
aF0
aF0
aF0
aa(lp2845
F0
aF0
aF0
aF0
aF0
aa(lp2846
F0
aF0
aF0
aF0
aF0
aa(lp2847
F0
aF0
aF0
aF0
aF0
aa(lp2848
F0
aF0
aF0
aF0
aF0
aa(lp2849
F0
aF0
aF0
aF0
aF0
aa(lp2850
F0
aF0
aF0
aF0
aF0
aa(lp2851
F0
aF0
aF0
aF0
aF0
aa(lp2852
F0
aF0
aF0
aF0
aF0
aa(lp2853
F0
aF0
aF0
aF0
aF0
aa(lp2854
F0
aF0
aF0
aF0
aF0
aa(lp2855
F0
aF0
aF0
aF0
aF0
aa(lp2856
F0
aF0
aF0
aF0
aF0
aa(lp2857
F0
aF0
aF0
aF0
aF0
aa(lp2858
F0
aF0
aF0
aF0
aF0
aa(lp2859
F0
aF0
aF0
aF0
aF0
aa(lp2860
F0
aF0
aF0
aF0
aF0
aa(lp2861
F0
aF0
aF0
aF0
aF0
aa(lp2862
F0
aF0
aF0
aF0
aF0
aa(lp2863
F0
aF0
aF0
aF0
aF0
aa(lp2864
F0
aF0
aF0
aF0
aF0
aa(lp2865
F0
aF0
aF0
aF0
aF0
aa(lp2866
F0
aF0
aF0
aF0
aF0
aa(lp2867
F0
aF0
aF0
aF0
aF0
aa(lp2868
F0
aF0
aF0
aF0
aF0
aa(lp2869
F0
aF0
aF0
aF0
aF0
aa(lp2870
F0
aF0
aF0
aF0
aF0
aa(lp2871
F0
aF0
aF0
aF0
aF0
aa(lp2872
F0
aF0
aF0
aF0
aF0
aaa(lp2873
(lp2874
F0
aF0
aF0
aF0
aF0
aa(lp2875
F0
aF0
aF0
aF0
aF0
aa(lp2876
F0
aF0
aF0
aF0
aF0
aa(lp2877
F0
aF0
aF0
aF0
aF0
aa(lp2878
F0
aF0
aF0
aF0
aF0
aa(lp2879
F0
aF0
aF0
aF0
aF0
aa(lp2880
F0
aF0
aF0
aF0
aF0
aa(lp2881
F0
aF0
aF0
aF0
aF0
aa(lp2882
F0
aF0
aF0
aF0
aF0
aa(lp2883
F0
aF0
aF0
aF0
aF0
aa(lp2884
F0
aF0
aF0
aF0
aF0
aa(lp2885
F0
aF0
aF0
aF0
aF0
aa(lp2886
F0
aF0
aF0
aF0
aF0
aa(lp2887
F0
aF0
aF0
aF0
aF0
aa(lp2888
F0
aF0
aF0
aF0
aF0
aa(lp2889
F0
aF0
aF0
aF0
aF0
aa(lp2890
F0
aF0
aF0
aF0
aF0
aa(lp2891
F0
aF0
aF0
aF0
aF0
aa(lp2892
F0
aF0
aF0
aF0
aF0
aa(lp2893
F0
aF0
aF0
aF0
aF0
aa(lp2894
F0
aF0
aF0
aF0
aF0
aa(lp2895
F0
aF0
aF0
aF0
aF0
aa(lp2896
F0
aF0
aF0
aF0
aF0
aa(lp2897
F0
aF0
aF0
aF0
aF0
aa(lp2898
F0
aF0
aF0
aF0
aF0
aa(lp2899
F0
aF0
aF0
aF0
aF0
aa(lp2900
F0
aF0
aF0
aF0
aF0
aa(lp2901
F0
aF0
aF0
aF0
aF0
aa(lp2902
F0
aF0
aF0
aF0
aF0
aa(lp2903
F0
aF0
aF0
aF0
aF0
aa(lp2904
F0
aF0
aF0
aF0
aF0
aa(lp2905
F0
aF0
aF0
aF0
aF0
aa(lp2906
F0
aF0
aF0
aF0
aF0
aa(lp2907
F0
aF0
aF0
aF0
aF0
aa(lp2908
F0
aF0
aF0
aF0
aF0
aa(lp2909
F0
aF0
aF0
aF0
aF0
aa(lp2910
F0
aF0
aF0
aF0
aF0
aa(lp2911
F0
aF0
aF0
aF0
aF0
aa(lp2912
F0
aF0
aF0
aF0
aF0
aa(lp2913
F0
aF0
aF0
aF0
aF0
aa(lp2914
F0
aF0
aF0
aF0
aF0
aa(lp2915
F0
aF0
aF0
aF0
aF0
aa(lp2916
F0
aF0
aF0
aF0
aF0
aa(lp2917
F0
aF0
aF0
aF0
aF0
aa(lp2918
F0
aF0
aF0
aF0
aF0
aa(lp2919
F0
aF0
aF0
aF0
aF0
aa(lp2920
F0
aF0
aF0
aF0
aF0
aa(lp2921
F0
aF0
aF0
aF0
aF0
aa(lp2922
F0
aF0
aF0
aF0
aF0
aa(lp2923
F1
aF0
aF0
aF1
aF0
aa(lp2924
F0
aF0
aF0
aF0
aF0
aa(lp2925
F0
aF0
aF0
aF0
aF0
aa(lp2926
F0
aF0
aF0
aF0
aF0
aa(lp2927
F0
aF0
aF0
aF0
aF0
aa(lp2928
F0
aF0
aF0
aF0
aF0
aa(lp2929
F0
aF0
aF0
aF0
aF0
aa(lp2930
F0
aF0
aF0
aF0
aF0
aa(lp2931
F0
aF0
aF0
aF0
aF0
aa(lp2932
F0
aF0
aF0
aF0
aF0
aa(lp2933
F0
aF0
aF0
aF0
aF0
aa(lp2934
F0
aF0
aF0
aF0
aF0
aa(lp2935
F0
aF0
aF0
aF0
aF0
aa(lp2936
F0
aF0
aF0
aF0
aF0
aa(lp2937
F0
aF0
aF0
aF0
aF0
aa(lp2938
F0
aF0
aF0
aF0
aF0
aa(lp2939
F0
aF0
aF0
aF0
aF0
aa(lp2940
F0
aF0
aF0
aF0
aF0
aa(lp2941
F0
aF0
aF0
aF0
aF0
aa(lp2942
F0
aF0
aF0
aF0
aF0
aa(lp2943
F0
aF0
aF0
aF0
aF0
aa(lp2944
F0
aF0
aF0
aF0
aF0
aa(lp2945
F0
aF0
aF0
aF0
aF0
aa(lp2946
F0
aF0
aF0
aF0
aF0
aa(lp2947
F0
aF0
aF0
aF0
aF0
aa(lp2948
F0
aF0
aF0
aF0
aF0
aa(lp2949
F0
aF0
aF0
aF0
aF0
aa(lp2950
F0
aF0
aF0
aF0
aF0
aa(lp2951
F0
aF0
aF0
aF0
aF0
aa(lp2952
F0
aF0
aF0
aF0
aF0
aa(lp2953
F0
aF0
aF0
aF0
aF0
aa(lp2954
F0
aF0
aF0
aF0
aF0
aa(lp2955
F0
aF0
aF0
aF0
aF0
aa(lp2956
F0
aF0
aF0
aF0
aF0
aa(lp2957
F0
aF0
aF0
aF0
aF0
aa(lp2958
F0
aF0
aF0
aF0
aF0
aa(lp2959
F0
aF0
aF0
aF0
aF0
aaa(lp2960
(lp2961
F0
aF0
aF0
aF0
aF0
aa(lp2962
F0
aF0
aF0
aF0
aF0
aa(lp2963
F0
aF0
aF0
aF0
aF0
aa(lp2964
F0
aF0
aF0
aF0
aF0
aa(lp2965
F0
aF0
aF0
aF0
aF0
aa(lp2966
F0
aF0
aF0
aF0
aF0
aa(lp2967
F0
aF0
aF0
aF0
aF0
aa(lp2968
F0
aF0
aF0
aF0
aF0
aa(lp2969
F0
aF0
aF0
aF0
aF0
aa(lp2970
F0
aF0
aF0
aF0
aF0
aa(lp2971
F0
aF0
aF0
aF0
aF0
aa(lp2972
F1
aF0
aF0
aF1
aF0
aa(lp2973
F0
aF0
aF0
aF0
aF0
aa(lp2974
F0
aF0
aF0
aF0
aF0
aa(lp2975
F0
aF0
aF0
aF0
aF0
aa(lp2976
F0
aF0
aF0
aF0
aF0
aa(lp2977
F0
aF0
aF0
aF0
aF0
aa(lp2978
F0
aF0
aF0
aF0
aF0
aa(lp2979
F0
aF0
aF0
aF0
aF0
aa(lp2980
F0
aF0
aF0
aF0
aF0
aa(lp2981
F0
aF0
aF0
aF0
aF0
aa(lp2982
F0
aF0
aF0
aF0
aF0
aa(lp2983
F0
aF0
aF0
aF0
aF0
aa(lp2984
F0
aF0
aF0
aF0
aF0
aa(lp2985
F0
aF0
aF0
aF0
aF0
aa(lp2986
F0
aF0
aF0
aF0
aF0
aa(lp2987
F0
aF0
aF0
aF0
aF0
aa(lp2988
F0
aF0
aF0
aF0
aF0
aa(lp2989
F0
aF0
aF0
aF0
aF0
aa(lp2990
F0
aF0
aF0
aF0
aF0
aa(lp2991
F0
aF0
aF0
aF0
aF0
aa(lp2992
F0
aF0
aF0
aF0
aF0
aa(lp2993
F0
aF0
aF0
aF0
aF0
aa(lp2994
F0
aF0
aF0
aF0
aF0
aa(lp2995
F0
aF0
aF0
aF0
aF0
aa(lp2996
F0
aF0
aF0
aF0
aF0
aa(lp2997
F0
aF0
aF0
aF0
aF0
aa(lp2998
F0
aF0
aF0
aF0
aF0
aa(lp2999
F0
aF0
aF0
aF0
aF0
aa(lp3000
F0
aF0
aF0
aF0
aF0
aa(lp3001
F0
aF0
aF0
aF0
aF0
aa(lp3002
F0
aF0
aF0
aF0
aF0
aa(lp3003
F0
aF0
aF0
aF0
aF0
aa(lp3004
F0
aF0
aF0
aF0
aF0
aa(lp3005
F0
aF0
aF0
aF0
aF0
aa(lp3006
F0
aF0
aF0
aF0
aF0
aa(lp3007
F0
aF0
aF0
aF0
aF0
aa(lp3008
F0
aF0
aF0
aF0
aF0
aa(lp3009
F0
aF0
aF0
aF0
aF0
aa(lp3010
F0
aF0
aF0
aF0
aF0
aa(lp3011
F0
aF0
aF0
aF0
aF0
aa(lp3012
F0
aF0
aF0
aF0
aF0
aa(lp3013
F0
aF0
aF0
aF0
aF0
aa(lp3014
F0
aF0
aF0
aF0
aF0
aa(lp3015
F0
aF0
aF0
aF0
aF0
aa(lp3016
F0
aF0
aF0
aF0
aF0
aa(lp3017
F0
aF0
aF0
aF0
aF0
aa(lp3018
F0
aF0
aF0
aF0
aF0
aa(lp3019
F0
aF0
aF0
aF0
aF0
aa(lp3020
F0
aF0
aF0
aF0
aF0
aa(lp3021
F0
aF0
aF0
aF0
aF0
aa(lp3022
F0
aF0
aF0
aF0
aF0
aa(lp3023
F0
aF0
aF0
aF0
aF0
aa(lp3024
F0
aF0
aF0
aF0
aF0
aa(lp3025
F0
aF0
aF0
aF0
aF0
aa(lp3026
F0
aF0
aF0
aF0
aF0
aa(lp3027
F0
aF0
aF0
aF0
aF0
aa(lp3028
F0
aF0
aF0
aF0
aF0
aa(lp3029
F0
aF0
aF0
aF0
aF0
aa(lp3030
F0
aF0
aF0
aF0
aF0
aa(lp3031
F0
aF0
aF0
aF0
aF0
aa(lp3032
F0
aF0
aF0
aF0
aF0
aa(lp3033
F0
aF0
aF0
aF0
aF0
aa(lp3034
F0
aF0
aF0
aF0
aF0
aa(lp3035
F0
aF0
aF0
aF0
aF0
aa(lp3036
F0
aF0
aF0
aF0
aF0
aa(lp3037
F0
aF0
aF0
aF0
aF0
aa(lp3038
F0
aF0
aF0
aF0
aF0
aa(lp3039
F0
aF0
aF0
aF0
aF0
aa(lp3040
F0
aF0
aF0
aF0
aF0
aa(lp3041
F0
aF0
aF0
aF0
aF0
aa(lp3042
F0
aF0
aF0
aF0
aF0
aa(lp3043
F0
aF0
aF0
aF0
aF0
aa(lp3044
F0
aF0
aF0
aF0
aF0
aa(lp3045
F0
aF0
aF0
aF0
aF0
aa(lp3046
F0
aF0
aF0
aF0
aF0
aaa(lp3047
(lp3048
F0
aF0
aF0
aF0
aF0
aa(lp3049
F0
aF0
aF0
aF0
aF0
aa(lp3050
F0
aF0
aF0
aF0
aF0
aa(lp3051
F0
aF0
aF0
aF0
aF0
aa(lp3052
F0
aF0
aF0
aF0
aF0
aa(lp3053
F0
aF0
aF0
aF0
aF0
aa(lp3054
F0
aF0
aF0
aF0
aF0
aa(lp3055
F0
aF0
aF0
aF0
aF0
aa(lp3056
F0
aF0
aF0
aF0
aF0
aa(lp3057
F0
aF0
aF0
aF0
aF0
aa(lp3058
F0
aF0
aF0
aF0
aF0
aa(lp3059
F0
aF0
aF0
aF0
aF0
aa(lp3060
F0
aF0
aF0
aF0
aF0
aa(lp3061
F0
aF0
aF0
aF0
aF0
aa(lp3062
F0
aF0
aF0
aF0
aF0
aa(lp3063
F0
aF0
aF0
aF0
aF0
aa(lp3064
F0
aF0
aF0
aF0
aF0
aa(lp3065
F0
aF0
aF0
aF0
aF0
aa(lp3066
F0
aF0
aF0
aF0
aF0
aa(lp3067
F0
aF0
aF0
aF0
aF0
aa(lp3068
F0
aF0
aF0
aF0
aF0
aa(lp3069
F0
aF0
aF0
aF0
aF0
aa(lp3070
F0
aF0
aF0
aF0
aF0
aa(lp3071
F0
aF0
aF0
aF0
aF0
aa(lp3072
F0
aF0
aF0
aF0
aF0
aa(lp3073
F0
aF0
aF0
aF0
aF0
aa(lp3074
F0
aF0
aF0
aF0
aF0
aa(lp3075
F0
aF0
aF0
aF0
aF0
aa(lp3076
F0
aF0
aF0
aF0
aF0
aa(lp3077
F0
aF0
aF0
aF0
aF0
aa(lp3078
F0
aF0
aF0
aF0
aF0
aa(lp3079
F0
aF0
aF0
aF0
aF0
aa(lp3080
F0
aF0
aF0
aF0
aF0
aa(lp3081
F0
aF0
aF0
aF0
aF0
aa(lp3082
F0
aF0
aF0
aF0
aF0
aa(lp3083
F0
aF0
aF0
aF0
aF0
aa(lp3084
F0
aF0
aF0
aF0
aF0
aa(lp3085
F0
aF0
aF0
aF0
aF0
aa(lp3086
F0
aF0
aF0
aF0
aF0
aa(lp3087
F0
aF0
aF0
aF0
aF0
aa(lp3088
F0
aF0
aF0
aF0
aF0
aa(lp3089
F0
aF0
aF0
aF0
aF0
aa(lp3090
F0
aF0
aF0
aF0
aF0
aa(lp3091
F0
aF0
aF0
aF0
aF0
aa(lp3092
F0
aF0
aF0
aF0
aF0
aa(lp3093
F0
aF0
aF0
aF0
aF0
aa(lp3094
F0
aF0
aF0
aF0
aF0
aa(lp3095
F1
aF0
aF0
aF1
aF0
aa(lp3096
F0
aF0
aF0
aF0
aF0
aa(lp3097
F0
aF0
aF0
aF0
aF0
aa(lp3098
F0
aF0
aF0
aF0
aF0
aa(lp3099
F0
aF0
aF0
aF0
aF0
aa(lp3100
F0
aF0
aF0
aF0
aF0
aa(lp3101
F0
aF0
aF0
aF0
aF0
aa(lp3102
F0
aF0
aF0
aF0
aF0
aa(lp3103
F0
aF0
aF0
aF0
aF0
aa(lp3104
F0
aF0
aF0
aF0
aF0
aa(lp3105
F0
aF0
aF0
aF0
aF0
aa(lp3106
F0
aF0
aF0
aF0
aF0
aa(lp3107
F0
aF0
aF0
aF0
aF0
aa(lp3108
F0
aF0
aF0
aF0
aF0
aa(lp3109
F0
aF0
aF0
aF0
aF0
aa(lp3110
F0
aF0
aF0
aF0
aF0
aa(lp3111
F0
aF0
aF0
aF0
aF0
aa(lp3112
F0
aF0
aF0
aF0
aF0
aa(lp3113
F0
aF0
aF0
aF0
aF0
aa(lp3114
F0
aF0
aF0
aF0
aF0
aa(lp3115
F0
aF0
aF0
aF0
aF0
aa(lp3116
F0
aF0
aF0
aF0
aF0
aa(lp3117
F0
aF0
aF0
aF0
aF0
aa(lp3118
F0
aF0
aF0
aF0
aF0
aa(lp3119
F0
aF0
aF0
aF0
aF0
aa(lp3120
F0
aF0
aF0
aF0
aF0
aa(lp3121
F0
aF0
aF0
aF0
aF0
aa(lp3122
F0
aF0
aF0
aF0
aF0
aa(lp3123
F0
aF0
aF0
aF0
aF0
aa(lp3124
F0
aF0
aF0
aF0
aF0
aa(lp3125
F0
aF0
aF0
aF0
aF0
aa(lp3126
F0
aF0
aF0
aF0
aF0
aa(lp3127
F0
aF0
aF0
aF0
aF0
aa(lp3128
F0
aF0
aF0
aF0
aF0
aa(lp3129
F0
aF0
aF0
aF0
aF0
aa(lp3130
F0
aF0
aF0
aF0
aF0
aa(lp3131
F0
aF0
aF0
aF0
aF0
aa(lp3132
F0
aF0
aF0
aF0
aF0
aa(lp3133
F0
aF0
aF0
aF0
aF0
aaa(lp3134
(lp3135
F0
aF0
aF0
aF0
aF0
aa(lp3136
F0
aF0
aF0
aF0
aF0
aa(lp3137
F0
aF0
aF0
aF0
aF0
aa(lp3138
F0
aF0
aF0
aF0
aF0
aa(lp3139
F0
aF0
aF0
aF0
aF0
aa(lp3140
F0
aF0
aF0
aF0
aF0
aa(lp3141
F0
aF0
aF0
aF0
aF0
aa(lp3142
F0
aF0
aF0
aF0
aF0
aa(lp3143
F0
aF0
aF0
aF0
aF0
aa(lp3144
F0
aF0
aF0
aF0
aF0
aa(lp3145
F0
aF0
aF0
aF0
aF0
aa(lp3146
F0
aF0
aF0
aF0
aF0
aa(lp3147
F0
aF0
aF0
aF0
aF0
aa(lp3148
F0
aF0
aF0
aF0
aF0
aa(lp3149
F0
aF0
aF0
aF0
aF0
aa(lp3150
F0
aF0
aF0
aF0
aF0
aa(lp3151
F1
aF0
aF0
aF1
aF0
aa(lp3152
F0
aF0
aF0
aF0
aF0
aa(lp3153
F0
aF0
aF0
aF0
aF0
aa(lp3154
F0
aF0
aF0
aF0
aF0
aa(lp3155
F0
aF0
aF0
aF0
aF0
aa(lp3156
F0
aF0
aF0
aF0
aF0
aa(lp3157
F0
aF0
aF0
aF0
aF0
aa(lp3158
F0
aF0
aF0
aF0
aF0
aa(lp3159
F0
aF0
aF0
aF0
aF0
aa(lp3160
F0
aF0
aF0
aF0
aF0
aa(lp3161
F0
aF0
aF0
aF0
aF0
aa(lp3162
F0
aF0
aF0
aF0
aF0
aa(lp3163
F0
aF0
aF0
aF0
aF0
aa(lp3164
F0
aF0
aF0
aF0
aF0
aa(lp3165
F0
aF0
aF0
aF0
aF0
aa(lp3166
F0
aF0
aF0
aF0
aF0
aa(lp3167
F0
aF0
aF0
aF0
aF0
aa(lp3168
F0
aF0
aF0
aF0
aF0
aa(lp3169
F0
aF0
aF0
aF0
aF0
aa(lp3170
F0
aF0
aF0
aF0
aF0
aa(lp3171
F0
aF0
aF0
aF0
aF0
aa(lp3172
F0
aF0
aF0
aF0
aF0
aa(lp3173
F0
aF0
aF0
aF0
aF0
aa(lp3174
F0
aF0
aF0
aF0
aF0
aa(lp3175
F0
aF0
aF0
aF0
aF0
aa(lp3176
F0
aF0
aF0
aF0
aF0
aa(lp3177
F0
aF0
aF0
aF0
aF0
aa(lp3178
F0
aF0
aF0
aF0
aF0
aa(lp3179
F0
aF0
aF0
aF0
aF0
aa(lp3180
F0
aF0
aF0
aF0
aF0
aa(lp3181
F0
aF0
aF0
aF0
aF0
aa(lp3182
F0
aF0
aF0
aF0
aF0
aa(lp3183
F0
aF0
aF0
aF0
aF0
aa(lp3184
F0
aF0
aF0
aF0
aF0
aa(lp3185
F0
aF0
aF0
aF0
aF0
aa(lp3186
F0
aF0
aF0
aF0
aF0
aa(lp3187
F0
aF0
aF0
aF0
aF0
aa(lp3188
F0
aF0
aF0
aF0
aF0
aa(lp3189
F0
aF0
aF0
aF0
aF0
aa(lp3190
F0
aF0
aF0
aF0
aF0
aa(lp3191
F0
aF0
aF0
aF0
aF0
aa(lp3192
F0
aF0
aF0
aF0
aF0
aa(lp3193
F0
aF0
aF0
aF0
aF0
aa(lp3194
F0
aF0
aF0
aF0
aF0
aa(lp3195
F0
aF0
aF0
aF0
aF0
aa(lp3196
F0
aF0
aF0
aF0
aF0
aa(lp3197
F0
aF0
aF0
aF0
aF0
aa(lp3198
F0
aF0
aF0
aF0
aF0
aa(lp3199
F0
aF0
aF0
aF0
aF0
aa(lp3200
F0
aF0
aF0
aF0
aF0
aa(lp3201
F0
aF0
aF0
aF0
aF0
aa(lp3202
F0
aF0
aF0
aF0
aF0
aa(lp3203
F0
aF0
aF0
aF0
aF0
aa(lp3204
F0
aF0
aF0
aF0
aF0
aa(lp3205
F0
aF0
aF0
aF0
aF0
aa(lp3206
F0
aF0
aF0
aF0
aF0
aa(lp3207
F0
aF0
aF0
aF0
aF0
aa(lp3208
F0
aF0
aF0
aF0
aF0
aa(lp3209
F0
aF0
aF0
aF0
aF0
aa(lp3210
F0
aF0
aF0
aF0
aF0
aa(lp3211
F0
aF0
aF0
aF0
aF0
aa(lp3212
F0
aF0
aF0
aF0
aF0
aa(lp3213
F0
aF0
aF0
aF0
aF0
aa(lp3214
F0
aF0
aF0
aF0
aF0
aa(lp3215
F0
aF0
aF0
aF0
aF0
aa(lp3216
F0
aF0
aF0
aF0
aF0
aa(lp3217
F0
aF0
aF0
aF0
aF0
aa(lp3218
F0
aF0
aF0
aF0
aF0
aa(lp3219
F0
aF0
aF0
aF0
aF0
aa(lp3220
F0
aF0
aF0
aF0
aF0
aaa(lp3221
(lp3222
F0
aF0
aF0
aF0
aF0
aa(lp3223
F0
aF0
aF0
aF0
aF0
aa(lp3224
F0
aF0
aF0
aF0
aF0
aa(lp3225
F0
aF0
aF0
aF0
aF0
aa(lp3226
F0
aF0
aF0
aF0
aF0
aa(lp3227
F0
aF0
aF0
aF0
aF0
aa(lp3228
F0
aF0
aF0
aF0
aF0
aa(lp3229
F0
aF0
aF0
aF0
aF0
aa(lp3230
F0
aF0
aF0
aF0
aF0
aa(lp3231
F0
aF0
aF0
aF0
aF0
aa(lp3232
F0
aF0
aF0
aF0
aF0
aa(lp3233
F0
aF0
aF0
aF0
aF0
aa(lp3234
F0
aF0
aF0
aF0
aF0
aa(lp3235
F0
aF0
aF0
aF0
aF0
aa(lp3236
F0
aF0
aF0
aF0
aF0
aa(lp3237
F0
aF0
aF0
aF0
aF0
aa(lp3238
F0
aF0
aF0
aF0
aF0
aa(lp3239
F0
aF0
aF0
aF0
aF0
aa(lp3240
F0
aF0
aF0
aF0
aF0
aa(lp3241
F0
aF0
aF0
aF0
aF0
aa(lp3242
F0
aF0
aF0
aF0
aF0
aa(lp3243
F0
aF0
aF0
aF0
aF0
aa(lp3244
F0
aF0
aF0
aF0
aF0
aa(lp3245
F0
aF0
aF0
aF0
aF0
aa(lp3246
F0
aF0
aF0
aF0
aF0
aa(lp3247
F0
aF0
aF0
aF0
aF0
aa(lp3248
F0
aF0
aF0
aF0
aF0
aa(lp3249
F0
aF0
aF0
aF0
aF0
aa(lp3250
F0
aF0
aF0
aF0
aF0
aa(lp3251
F0
aF0
aF0
aF0
aF0
aa(lp3252
F0
aF0
aF0
aF0
aF0
aa(lp3253
F0
aF0
aF0
aF0
aF0
aa(lp3254
F0
aF0
aF0
aF0
aF0
aa(lp3255
F0
aF0
aF0
aF0
aF0
aa(lp3256
F0
aF0
aF0
aF0
aF0
aa(lp3257
F1
aF1
aF0
aF1
aF0
aa(lp3258
F0
aF0
aF0
aF0
aF0
aa(lp3259
F0
aF0
aF0
aF0
aF0
aa(lp3260
F0
aF0
aF0
aF0
aF0
aa(lp3261
F0
aF0
aF0
aF0
aF0
aa(lp3262
F0
aF0
aF0
aF0
aF0
aa(lp3263
F0
aF0
aF0
aF0
aF0
aa(lp3264
F0
aF0
aF0
aF0
aF0
aa(lp3265
F0
aF0
aF0
aF0
aF0
aa(lp3266
F0
aF0
aF0
aF0
aF0
aa(lp3267
F0
aF0
aF0
aF0
aF0
aa(lp3268
F0
aF0
aF0
aF0
aF0
aa(lp3269
F0
aF0
aF0
aF0
aF0
aa(lp3270
F0
aF0
aF0
aF0
aF0
aa(lp3271
F0
aF0
aF0
aF0
aF0
aa(lp3272
F0
aF0
aF0
aF0
aF0
aa(lp3273
F0
aF0
aF0
aF0
aF0
aa(lp3274
F0
aF0
aF0
aF0
aF0
aa(lp3275
F0
aF0
aF0
aF0
aF0
aa(lp3276
F0
aF0
aF0
aF0
aF0
aa(lp3277
F0
aF0
aF0
aF0
aF0
aa(lp3278
F0
aF0
aF0
aF0
aF0
aa(lp3279
F0
aF0
aF0
aF0
aF0
aa(lp3280
F0
aF0
aF0
aF0
aF0
aa(lp3281
F0
aF0
aF0
aF0
aF0
aa(lp3282
F0
aF0
aF0
aF0
aF0
aa(lp3283
F0
aF0
aF0
aF0
aF0
aa(lp3284
F0
aF0
aF0
aF0
aF0
aa(lp3285
F0
aF0
aF0
aF0
aF0
aa(lp3286
F0
aF0
aF0
aF0
aF0
aa(lp3287
F0
aF0
aF0
aF0
aF0
aa(lp3288
F0
aF0
aF0
aF0
aF0
aa(lp3289
F0
aF0
aF0
aF0
aF0
aa(lp3290
F0
aF0
aF0
aF0
aF0
aa(lp3291
F0
aF0
aF0
aF0
aF0
aa(lp3292
F0
aF0
aF0
aF0
aF0
aa(lp3293
F0
aF0
aF0
aF0
aF0
aa(lp3294
F0
aF0
aF0
aF0
aF0
aa(lp3295
F0
aF0
aF0
aF0
aF0
aa(lp3296
F0
aF0
aF0
aF0
aF0
aa(lp3297
F0
aF0
aF0
aF0
aF0
aa(lp3298
F0
aF0
aF0
aF0
aF0
aa(lp3299
F0
aF0
aF0
aF0
aF0
aa(lp3300
F0
aF0
aF0
aF0
aF0
aa(lp3301
F0
aF0
aF0
aF0
aF0
aa(lp3302
F0
aF0
aF0
aF0
aF0
aa(lp3303
F0
aF0
aF0
aF0
aF0
aa(lp3304
F0
aF0
aF0
aF0
aF0
aa(lp3305
F0
aF0
aF0
aF0
aF0
aa(lp3306
F0
aF0
aF0
aF0
aF0
aa(lp3307
F0
aF0
aF0
aF0
aF0
aaa(lp3308
(lp3309
F0
aF0
aF0
aF0
aF0
aa(lp3310
F0
aF0
aF0
aF0
aF0
aa(lp3311
F0
aF0
aF0
aF0
aF0
aa(lp3312
F0
aF0
aF0
aF0
aF0
aa(lp3313
F0
aF0
aF0
aF0
aF0
aa(lp3314
F0
aF0
aF0
aF0
aF0
aa(lp3315
F0
aF0
aF0
aF0
aF0
aa(lp3316
F0
aF0
aF0
aF0
aF0
aa(lp3317
F0
aF0
aF0
aF0
aF0
aa(lp3318
F0
aF0
aF0
aF0
aF0
aa(lp3319
F0
aF0
aF0
aF0
aF0
aa(lp3320
F0
aF0
aF0
aF0
aF0
aa(lp3321
F0
aF0
aF0
aF0
aF0
aa(lp3322
F0
aF0
aF0
aF0
aF0
aa(lp3323
F0
aF0
aF0
aF0
aF0
aa(lp3324
F0
aF0
aF0
aF0
aF0
aa(lp3325
F0
aF0
aF0
aF0
aF0
aa(lp3326
F0
aF0
aF0
aF0
aF0
aa(lp3327
F0
aF0
aF0
aF0
aF0
aa(lp3328
F0
aF0
aF0
aF0
aF0
aa(lp3329
F0
aF0
aF0
aF0
aF0
aa(lp3330
F0
aF0
aF0
aF0
aF0
aa(lp3331
F0
aF0
aF0
aF0
aF0
aa(lp3332
F0
aF0
aF0
aF0
aF0
aa(lp3333
F0
aF0
aF0
aF0
aF0
aa(lp3334
F0
aF0
aF0
aF0
aF0
aa(lp3335
F0
aF0
aF0
aF0
aF0
aa(lp3336
F0
aF0
aF0
aF0
aF0
aa(lp3337
F0
aF0
aF0
aF0
aF0
aa(lp3338
F0
aF0
aF0
aF0
aF0
aa(lp3339
F0
aF0
aF0
aF0
aF0
aa(lp3340
F0
aF0
aF0
aF0
aF0
aa(lp3341
F0
aF0
aF0
aF0
aF0
aa(lp3342
F1
aF0
aF0
aF1
aF0
aa(lp3343
F0
aF0
aF0
aF0
aF0
aa(lp3344
F0
aF0
aF0
aF0
aF0
aa(lp3345
F0
aF0
aF0
aF0
aF0
aa(lp3346
F0
aF0
aF0
aF0
aF0
aa(lp3347
F0
aF0
aF0
aF0
aF0
aa(lp3348
F0
aF0
aF0
aF0
aF0
aa(lp3349
F0
aF0
aF0
aF0
aF0
aa(lp3350
F0
aF0
aF0
aF0
aF0
aa(lp3351
F0
aF0
aF0
aF0
aF0
aa(lp3352
F0
aF0
aF0
aF0
aF0
aa(lp3353
F0
aF0
aF0
aF0
aF0
aa(lp3354
F0
aF0
aF0
aF0
aF0
aa(lp3355
F0
aF0
aF0
aF0
aF0
aa(lp3356
F0
aF0
aF0
aF0
aF0
aa(lp3357
F0
aF0
aF0
aF0
aF0
aa(lp3358
F0
aF0
aF0
aF0
aF0
aa(lp3359
F0
aF0
aF0
aF0
aF0
aa(lp3360
F0
aF0
aF0
aF0
aF0
aa(lp3361
F0
aF0
aF0
aF0
aF0
aa(lp3362
F0
aF0
aF0
aF0
aF0
aa(lp3363
F0
aF0
aF0
aF0
aF0
aa(lp3364
F0
aF0
aF0
aF0
aF0
aa(lp3365
F0
aF0
aF0
aF0
aF0
aa(lp3366
F0
aF0
aF0
aF0
aF0
aa(lp3367
F0
aF0
aF0
aF0
aF0
aa(lp3368
F0
aF0
aF0
aF0
aF0
aa(lp3369
F0
aF0
aF0
aF0
aF0
aa(lp3370
F0
aF0
aF0
aF0
aF0
aa(lp3371
F0
aF0
aF0
aF0
aF0
aa(lp3372
F0
aF0
aF0
aF0
aF0
aa(lp3373
F0
aF0
aF0
aF0
aF0
aa(lp3374
F0
aF0
aF0
aF0
aF0
aa(lp3375
F0
aF0
aF0
aF0
aF0
aa(lp3376
F0
aF0
aF0
aF0
aF0
aa(lp3377
F0
aF0
aF0
aF0
aF0
aa(lp3378
F0
aF0
aF0
aF0
aF0
aa(lp3379
F0
aF0
aF0
aF0
aF0
aa(lp3380
F0
aF0
aF0
aF0
aF0
aa(lp3381
F0
aF0
aF0
aF0
aF0
aa(lp3382
F0
aF0
aF0
aF0
aF0
aa(lp3383
F0
aF0
aF0
aF0
aF0
aa(lp3384
F0
aF0
aF0
aF0
aF0
aa(lp3385
F0
aF0
aF0
aF0
aF0
aa(lp3386
F0
aF0
aF0
aF0
aF0
aa(lp3387
F0
aF0
aF0
aF0
aF0
aa(lp3388
F0
aF0
aF0
aF0
aF0
aa(lp3389
F0
aF0
aF0
aF0
aF0
aa(lp3390
F0
aF0
aF0
aF0
aF0
aa(lp3391
F0
aF0
aF0
aF0
aF0
aa(lp3392
F0
aF0
aF0
aF0
aF0
aa(lp3393
F0
aF0
aF0
aF0
aF0
aa(lp3394
F0
aF0
aF0
aF0
aF0
aaa(lp3395
(lp3396
F0
aF0
aF0
aF0
aF0
aa(lp3397
F0
aF0
aF0
aF0
aF0
aa(lp3398
F0
aF0
aF0
aF0
aF0
aa(lp3399
F0
aF0
aF0
aF0
aF0
aa(lp3400
F0
aF0
aF0
aF0
aF0
aa(lp3401
F0
aF0
aF0
aF0
aF0
aa(lp3402
F0
aF0
aF0
aF0
aF0
aa(lp3403
F0
aF0
aF0
aF0
aF0
aa(lp3404
F0
aF0
aF0
aF0
aF0
aa(lp3405
F0
aF0
aF0
aF0
aF0
aa(lp3406
F0
aF0
aF0
aF0
aF0
aa(lp3407
F0
aF0
aF0
aF0
aF0
aa(lp3408
F0
aF0
aF0
aF0
aF0
aa(lp3409
F0
aF0
aF0
aF0
aF0
aa(lp3410
F0
aF0
aF0
aF0
aF0
aa(lp3411
F1
aF0
aF0
aF1
aF0
aa(lp3412
F0
aF0
aF0
aF0
aF0
aa(lp3413
F0
aF0
aF0
aF0
aF0
aa(lp3414
F0
aF0
aF0
aF0
aF0
aa(lp3415
F0
aF0
aF0
aF0
aF0
aa(lp3416
F0
aF0
aF0
aF0
aF0
aa(lp3417
F0
aF0
aF0
aF0
aF0
aa(lp3418
F0
aF0
aF0
aF0
aF0
aa(lp3419
F0
aF0
aF0
aF0
aF0
aa(lp3420
F0
aF0
aF0
aF0
aF0
aa(lp3421
F0
aF0
aF0
aF0
aF0
aa(lp3422
F0
aF0
aF0
aF0
aF0
aa(lp3423
F0
aF0
aF0
aF0
aF0
aa(lp3424
F0
aF0
aF0
aF0
aF0
aa(lp3425
F0
aF0
aF0
aF0
aF0
aa(lp3426
F0
aF0
aF0
aF0
aF0
aa(lp3427
F0
aF0
aF0
aF0
aF0
aa(lp3428
F0
aF0
aF0
aF0
aF0
aa(lp3429
F0
aF0
aF0
aF0
aF0
aa(lp3430
F0
aF0
aF0
aF0
aF0
aa(lp3431
F0
aF0
aF0
aF0
aF0
aa(lp3432
F0
aF0
aF0
aF0
aF0
aa(lp3433
F0
aF0
aF0
aF0
aF0
aa(lp3434
F0
aF0
aF0
aF0
aF0
aa(lp3435
F0
aF0
aF0
aF0
aF0
aa(lp3436
F0
aF0
aF0
aF0
aF0
aa(lp3437
F0
aF0
aF0
aF0
aF0
aa(lp3438
F0
aF0
aF0
aF0
aF0
aa(lp3439
F0
aF0
aF0
aF0
aF0
aa(lp3440
F0
aF0
aF0
aF0
aF0
aa(lp3441
F0
aF0
aF0
aF0
aF0
aa(lp3442
F0
aF0
aF0
aF0
aF0
aa(lp3443
F0
aF0
aF0
aF0
aF0
aa(lp3444
F0
aF0
aF0
aF0
aF0
aa(lp3445
F0
aF0
aF0
aF0
aF0
aa(lp3446
F0
aF0
aF0
aF0
aF0
aa(lp3447
F0
aF0
aF0
aF0
aF0
aa(lp3448
F0
aF0
aF0
aF0
aF0
aa(lp3449
F0
aF0
aF0
aF0
aF0
aa(lp3450
F0
aF0
aF0
aF0
aF0
aa(lp3451
F0
aF0
aF0
aF0
aF0
aa(lp3452
F0
aF0
aF0
aF0
aF0
aa(lp3453
F0
aF0
aF0
aF0
aF0
aa(lp3454
F0
aF0
aF0
aF0
aF0
aa(lp3455
F0
aF0
aF0
aF0
aF0
aa(lp3456
F0
aF0
aF0
aF0
aF0
aa(lp3457
F0
aF0
aF0
aF0
aF0
aa(lp3458
F0
aF0
aF0
aF0
aF0
aa(lp3459
F0
aF0
aF0
aF0
aF0
aa(lp3460
F0
aF0
aF0
aF0
aF0
aa(lp3461
F0
aF0
aF0
aF0
aF0
aa(lp3462
F0
aF0
aF0
aF0
aF0
aa(lp3463
F0
aF0
aF0
aF0
aF0
aa(lp3464
F0
aF0
aF0
aF0
aF0
aa(lp3465
F0
aF0
aF0
aF0
aF0
aa(lp3466
F0
aF0
aF0
aF0
aF0
aa(lp3467
F0
aF0
aF0
aF0
aF0
aa(lp3468
F0
aF0
aF0
aF0
aF0
aa(lp3469
F0
aF0
aF0
aF0
aF0
aa(lp3470
F0
aF0
aF0
aF0
aF0
aa(lp3471
F0
aF0
aF0
aF0
aF0
aa(lp3472
F0
aF0
aF0
aF0
aF0
aa(lp3473
F0
aF0
aF0
aF0
aF0
aa(lp3474
F0
aF0
aF0
aF0
aF0
aa(lp3475
F0
aF0
aF0
aF0
aF0
aa(lp3476
F0
aF0
aF0
aF0
aF0
aa(lp3477
F0
aF0
aF0
aF0
aF0
aa(lp3478
F0
aF0
aF0
aF0
aF0
aa(lp3479
F0
aF0
aF0
aF0
aF0
aa(lp3480
F0
aF0
aF0
aF0
aF0
aa(lp3481
F0
aF0
aF0
aF0
aF0
aaa(lp3482
(lp3483
F0
aF0
aF0
aF0
aF0
aa(lp3484
F0
aF0
aF0
aF0
aF0
aa(lp3485
F0
aF0
aF0
aF0
aF0
aa(lp3486
F0
aF0
aF0
aF0
aF0
aa(lp3487
F0
aF0
aF0
aF0
aF0
aa(lp3488
F0
aF0
aF0
aF0
aF0
aa(lp3489
F0
aF0
aF0
aF0
aF0
aa(lp3490
F0
aF0
aF0
aF0
aF0
aa(lp3491
F0
aF0
aF0
aF0
aF0
aa(lp3492
F0
aF0
aF0
aF0
aF0
aa(lp3493
F0
aF0
aF0
aF0
aF0
aa(lp3494
F0
aF0
aF0
aF0
aF0
aa(lp3495
F0
aF0
aF0
aF0
aF0
aa(lp3496
F0
aF0
aF0
aF0
aF0
aa(lp3497
F0
aF0
aF0
aF0
aF0
aa(lp3498
F0
aF0
aF0
aF0
aF0
aa(lp3499
F1
aF0
aF0
aF1
aF0
aa(lp3500
F0
aF0
aF0
aF0
aF0
aa(lp3501
F0
aF0
aF0
aF0
aF0
aa(lp3502
F0
aF0
aF0
aF0
aF0
aa(lp3503
F0
aF0
aF0
aF0
aF0
aa(lp3504
F0
aF0
aF0
aF0
aF0
aa(lp3505
F0
aF0
aF0
aF0
aF0
aa(lp3506
F0
aF0
aF0
aF0
aF0
aa(lp3507
F0
aF0
aF0
aF0
aF0
aa(lp3508
F0
aF0
aF0
aF0
aF0
aa(lp3509
F0
aF0
aF0
aF0
aF0
aa(lp3510
F0
aF0
aF0
aF0
aF0
aa(lp3511
F0
aF0
aF0
aF0
aF0
aa(lp3512
F0
aF0
aF0
aF0
aF0
aa(lp3513
F0
aF0
aF0
aF0
aF0
aa(lp3514
F0
aF0
aF0
aF0
aF0
aa(lp3515
F0
aF0
aF0
aF0
aF0
aa(lp3516
F0
aF0
aF0
aF0
aF0
aa(lp3517
F0
aF0
aF0
aF0
aF0
aa(lp3518
F0
aF0
aF0
aF0
aF0
aa(lp3519
F0
aF0
aF0
aF0
aF0
aa(lp3520
F0
aF0
aF0
aF0
aF0
aa(lp3521
F0
aF0
aF0
aF0
aF0
aa(lp3522
F0
aF0
aF0
aF0
aF0
aa(lp3523
F0
aF0
aF0
aF0
aF0
aa(lp3524
F0
aF0
aF0
aF0
aF0
aa(lp3525
F0
aF0
aF0
aF0
aF0
aa(lp3526
F0
aF0
aF0
aF0
aF0
aa(lp3527
F0
aF0
aF0
aF0
aF0
aa(lp3528
F0
aF0
aF0
aF0
aF0
aa(lp3529
F0
aF0
aF0
aF0
aF0
aa(lp3530
F0
aF0
aF0
aF0
aF0
aa(lp3531
F0
aF0
aF0
aF0
aF0
aa(lp3532
F0
aF0
aF0
aF0
aF0
aa(lp3533
F0
aF0
aF0
aF0
aF0
aa(lp3534
F0
aF0
aF0
aF0
aF0
aa(lp3535
F0
aF0
aF0
aF0
aF0
aa(lp3536
F0
aF0
aF0
aF0
aF0
aa(lp3537
F0
aF0
aF0
aF0
aF0
aa(lp3538
F0
aF0
aF0
aF0
aF0
aa(lp3539
F0
aF0
aF0
aF0
aF0
aa(lp3540
F0
aF0
aF0
aF0
aF0
aa(lp3541
F0
aF0
aF0
aF0
aF0
aa(lp3542
F0
aF0
aF0
aF0
aF0
aa(lp3543
F0
aF0
aF0
aF0
aF0
aa(lp3544
F0
aF0
aF0
aF0
aF0
aa(lp3545
F0
aF0
aF0
aF0
aF0
aa(lp3546
F0
aF0
aF0
aF0
aF0
aa(lp3547
F0
aF0
aF0
aF0
aF0
aa(lp3548
F0
aF0
aF0
aF0
aF0
aa(lp3549
F0
aF0
aF0
aF0
aF0
aa(lp3550
F0
aF0
aF0
aF0
aF0
aa(lp3551
F0
aF0
aF0
aF0
aF0
aa(lp3552
F0
aF0
aF0
aF0
aF0
aa(lp3553
F0
aF0
aF0
aF0
aF0
aa(lp3554
F0
aF0
aF0
aF0
aF0
aa(lp3555
F0
aF0
aF0
aF0
aF0
aa(lp3556
F0
aF0
aF0
aF0
aF0
aa(lp3557
F0
aF0
aF0
aF0
aF0
aa(lp3558
F0
aF0
aF0
aF0
aF0
aa(lp3559
F0
aF0
aF0
aF0
aF0
aa(lp3560
F0
aF0
aF0
aF0
aF0
aa(lp3561
F0
aF0
aF0
aF0
aF0
aa(lp3562
F0
aF0
aF0
aF0
aF0
aa(lp3563
F0
aF0
aF0
aF0
aF0
aa(lp3564
F0
aF0
aF0
aF0
aF0
aa(lp3565
F0
aF0
aF0
aF0
aF0
aa(lp3566
F0
aF0
aF0
aF0
aF0
aa(lp3567
F0
aF0
aF0
aF0
aF0
aa(lp3568
F0
aF0
aF0
aF0
aF0
aaa(lp3569
(lp3570
F0
aF0
aF0
aF0
aF0
aa(lp3571
F0
aF0
aF0
aF0
aF0
aa(lp3572
F0
aF0
aF0
aF0
aF0
aa(lp3573
F0
aF0
aF0
aF0
aF0
aa(lp3574
F0
aF0
aF0
aF0
aF0
aa(lp3575
F0
aF0
aF0
aF0
aF0
aa(lp3576
F0
aF0
aF0
aF0
aF0
aa(lp3577
F0
aF0
aF0
aF0
aF0
aa(lp3578
F0
aF0
aF0
aF0
aF0
aa(lp3579
F0
aF0
aF0
aF0
aF0
aa(lp3580
F0
aF0
aF0
aF0
aF0
aa(lp3581
F0
aF0
aF0
aF0
aF0
aa(lp3582
F0
aF0
aF0
aF0
aF0
aa(lp3583
F0
aF0
aF0
aF0
aF0
aa(lp3584
F0
aF0
aF0
aF0
aF0
aa(lp3585
F0
aF0
aF0
aF0
aF0
aa(lp3586
F0
aF0
aF0
aF0
aF0
aa(lp3587
F0
aF0
aF0
aF0
aF0
aa(lp3588
F0
aF0
aF0
aF0
aF0
aa(lp3589
F0
aF0
aF0
aF0
aF0
aa(lp3590
F0
aF0
aF0
aF0
aF0
aa(lp3591
F0
aF0
aF0
aF0
aF0
aa(lp3592
F0
aF0
aF0
aF0
aF0
aa(lp3593
F0
aF0
aF0
aF0
aF0
aa(lp3594
F0
aF0
aF0
aF0
aF0
aa(lp3595
F0
aF0
aF0
aF0
aF0
aa(lp3596
F0
aF0
aF0
aF0
aF0
aa(lp3597
F0
aF0
aF0
aF0
aF0
aa(lp3598
F0
aF0
aF0
aF0
aF0
aa(lp3599
F0
aF0
aF0
aF0
aF0
aa(lp3600
F0
aF0
aF0
aF0
aF0
aa(lp3601
F0
aF0
aF0
aF0
aF0
aa(lp3602
F0
aF0
aF0
aF0
aF0
aa(lp3603
F0
aF0
aF0
aF0
aF0
aa(lp3604
F0
aF0
aF0
aF0
aF0
aa(lp3605
F0
aF0
aF0
aF0
aF0
aa(lp3606
F0
aF0
aF0
aF0
aF0
aa(lp3607
F0
aF0
aF0
aF0
aF0
aa(lp3608
F0
aF0
aF0
aF0
aF0
aa(lp3609
F0
aF0
aF0
aF0
aF0
aa(lp3610
F0
aF0
aF0
aF0
aF0
aa(lp3611
F0
aF0
aF0
aF0
aF0
aa(lp3612
F0
aF0
aF0
aF0
aF0
aa(lp3613
F0
aF0
aF0
aF0
aF0
aa(lp3614
F0
aF0
aF0
aF0
aF0
aa(lp3615
F0
aF0
aF0
aF0
aF0
aa(lp3616
F0
aF0
aF0
aF0
aF0
aa(lp3617
F1
aF0
aF0
aF1
aF0
aa(lp3618
F0
aF0
aF0
aF0
aF0
aa(lp3619
F0
aF0
aF0
aF0
aF0
aa(lp3620
F0
aF0
aF0
aF0
aF0
aa(lp3621
F0
aF0
aF0
aF0
aF0
aa(lp3622
F0
aF0
aF0
aF0
aF0
aa(lp3623
F0
aF0
aF0
aF0
aF0
aa(lp3624
F0
aF0
aF0
aF0
aF0
aa(lp3625
F0
aF0
aF0
aF0
aF0
aa(lp3626
F0
aF0
aF0
aF0
aF0
aa(lp3627
F0
aF0
aF0
aF0
aF0
aa(lp3628
F0
aF0
aF0
aF0
aF0
aa(lp3629
F0
aF0
aF0
aF0
aF0
aa(lp3630
F0
aF0
aF0
aF0
aF0
aa(lp3631
F0
aF0
aF0
aF0
aF0
aa(lp3632
F0
aF0
aF0
aF0
aF0
aa(lp3633
F0
aF0
aF0
aF0
aF0
aa(lp3634
F0
aF0
aF0
aF0
aF0
aa(lp3635
F0
aF0
aF0
aF0
aF0
aa(lp3636
F0
aF0
aF0
aF0
aF0
aa(lp3637
F0
aF0
aF0
aF0
aF0
aa(lp3638
F0
aF0
aF0
aF0
aF0
aa(lp3639
F0
aF0
aF0
aF0
aF0
aa(lp3640
F0
aF0
aF0
aF0
aF0
aa(lp3641
F0
aF0
aF0
aF0
aF0
aa(lp3642
F0
aF0
aF0
aF0
aF0
aa(lp3643
F0
aF0
aF0
aF0
aF0
aa(lp3644
F0
aF0
aF0
aF0
aF0
aa(lp3645
F0
aF0
aF0
aF0
aF0
aa(lp3646
F0
aF0
aF0
aF0
aF0
aa(lp3647
F0
aF0
aF0
aF0
aF0
aa(lp3648
F0
aF0
aF0
aF0
aF0
aa(lp3649
F0
aF0
aF0
aF0
aF0
aa(lp3650
F0
aF0
aF0
aF0
aF0
aa(lp3651
F0
aF0
aF0
aF0
aF0
aa(lp3652
F0
aF0
aF0
aF0
aF0
aa(lp3653
F0
aF0
aF0
aF0
aF0
aa(lp3654
F0
aF0
aF0
aF0
aF0
aa(lp3655
F0
aF0
aF0
aF0
aF0
aaa(lp3656
(lp3657
F0
aF0
aF0
aF0
aF0
aa(lp3658
F0
aF0
aF0
aF0
aF0
aa(lp3659
F0
aF0
aF0
aF0
aF0
aa(lp3660
F0
aF0
aF0
aF0
aF0
aa(lp3661
F0
aF0
aF0
aF0
aF0
aa(lp3662
F0
aF0
aF0
aF0
aF0
aa(lp3663
F0
aF0
aF0
aF0
aF0
aa(lp3664
F0
aF0
aF0
aF0
aF0
aa(lp3665
F0
aF0
aF0
aF0
aF0
aa(lp3666
F0
aF0
aF0
aF0
aF0
aa(lp3667
F0
aF0
aF0
aF0
aF0
aa(lp3668
F0
aF0
aF0
aF0
aF0
aa(lp3669
F0
aF0
aF0
aF0
aF0
aa(lp3670
F0
aF0
aF0
aF0
aF0
aa(lp3671
F0
aF0
aF0
aF0
aF0
aa(lp3672
F0
aF0
aF0
aF0
aF0
aa(lp3673
F0
aF0
aF0
aF0
aF0
aa(lp3674
F0
aF0
aF0
aF0
aF0
aa(lp3675
F1
aF0
aF0
aF1
aF0
aa(lp3676
F0
aF0
aF0
aF0
aF0
aa(lp3677
F0
aF0
aF0
aF0
aF0
aa(lp3678
F0
aF0
aF0
aF0
aF0
aa(lp3679
F0
aF0
aF0
aF0
aF0
aa(lp3680
F0
aF0
aF0
aF0
aF0
aa(lp3681
F0
aF0
aF0
aF0
aF0
aa(lp3682
F0
aF0
aF0
aF0
aF0
aa(lp3683
F0
aF0
aF0
aF0
aF0
aa(lp3684
F0
aF0
aF0
aF0
aF0
aa(lp3685
F0
aF0
aF0
aF0
aF0
aa(lp3686
F0
aF0
aF0
aF0
aF0
aa(lp3687
F0
aF0
aF0
aF0
aF0
aa(lp3688
F0
aF0
aF0
aF0
aF0
aa(lp3689
F0
aF0
aF0
aF0
aF0
aa(lp3690
F0
aF0
aF0
aF0
aF0
aa(lp3691
F0
aF0
aF0
aF0
aF0
aa(lp3692
F1
aF1
aF0
aF1
aF0
aa(lp3693
F0
aF0
aF0
aF0
aF0
aa(lp3694
F0
aF0
aF0
aF0
aF0
aa(lp3695
F0
aF0
aF0
aF0
aF0
aa(lp3696
F0
aF0
aF0
aF0
aF0
aa(lp3697
F0
aF0
aF0
aF0
aF0
aa(lp3698
F0
aF0
aF0
aF0
aF0
aa(lp3699
F0
aF0
aF0
aF0
aF0
aa(lp3700
F0
aF0
aF0
aF0
aF0
aa(lp3701
F0
aF0
aF0
aF0
aF0
aa(lp3702
F0
aF0
aF0
aF0
aF0
aa(lp3703
F0
aF0
aF0
aF0
aF0
aa(lp3704
F1
aF0
aF0
aF1
aF0
aa(lp3705
F0
aF0
aF0
aF0
aF0
aa(lp3706
F0
aF0
aF0
aF0
aF0
aa(lp3707
F0
aF0
aF0
aF0
aF0
aa(lp3708
F0
aF0
aF0
aF0
aF0
aa(lp3709
F0
aF0
aF0
aF0
aF0
aa(lp3710
F0
aF0
aF0
aF0
aF0
aa(lp3711
F0
aF0
aF0
aF0
aF0
aa(lp3712
F0
aF0
aF0
aF0
aF0
aa(lp3713
F0
aF0
aF0
aF0
aF0
aa(lp3714
F0
aF0
aF0
aF0
aF0
aa(lp3715
F0
aF0
aF0
aF0
aF0
aa(lp3716
F0
aF0
aF0
aF0
aF0
aa(lp3717
F0
aF0
aF0
aF0
aF0
aa(lp3718
F0
aF0
aF0
aF0
aF0
aa(lp3719
F0
aF0
aF0
aF0
aF0
aa(lp3720
F0
aF0
aF0
aF0
aF0
aa(lp3721
F0
aF0
aF0
aF0
aF0
aa(lp3722
F0
aF0
aF0
aF0
aF0
aa(lp3723
F0
aF0
aF0
aF0
aF0
aa(lp3724
F0
aF0
aF0
aF0
aF0
aa(lp3725
F0
aF0
aF0
aF0
aF0
aa(lp3726
F0
aF0
aF0
aF0
aF0
aa(lp3727
F0
aF0
aF0
aF0
aF0
aa(lp3728
F0
aF0
aF0
aF0
aF0
aa(lp3729
F0
aF0
aF0
aF0
aF0
aa(lp3730
F0
aF0
aF0
aF0
aF0
aa(lp3731
F0
aF0
aF0
aF0
aF0
aa(lp3732
F0
aF0
aF0
aF0
aF0
aa(lp3733
F0
aF0
aF0
aF0
aF0
aa(lp3734
F0
aF0
aF0
aF0
aF0
aa(lp3735
F0
aF0
aF0
aF0
aF0
aa(lp3736
F0
aF0
aF0
aF0
aF0
aa(lp3737
F0
aF0
aF0
aF0
aF0
aa(lp3738
F0
aF0
aF0
aF0
aF0
aa(lp3739
F0
aF0
aF0
aF0
aF0
aa(lp3740
F0
aF0
aF0
aF0
aF0
aa(lp3741
F0
aF0
aF0
aF0
aF0
aa(lp3742
F0
aF0
aF0
aF0
aF0
aaa(lp3743
(lp3744
F0
aF0
aF0
aF0
aF0
aa(lp3745
F0
aF0
aF0
aF0
aF0
aa(lp3746
F0
aF0
aF0
aF0
aF0
aa(lp3747
F0
aF0
aF0
aF0
aF0
aa(lp3748
F0
aF0
aF0
aF0
aF0
aa(lp3749
F0
aF0
aF0
aF0
aF0
aa(lp3750
F0
aF0
aF0
aF0
aF0
aa(lp3751
F0
aF0
aF0
aF0
aF0
aa(lp3752
F0
aF0
aF0
aF0
aF0
aa(lp3753
F0
aF0
aF0
aF0
aF0
aa(lp3754
F0
aF0
aF0
aF0
aF0
aa(lp3755
F0
aF0
aF0
aF0
aF0
aa(lp3756
F0
aF0
aF0
aF0
aF0
aa(lp3757
F0
aF0
aF0
aF0
aF0
aa(lp3758
F0
aF0
aF0
aF0
aF0
aa(lp3759
F0
aF0
aF0
aF0
aF0
aa(lp3760
F0
aF0
aF0
aF0
aF0
aa(lp3761
F0
aF0
aF0
aF0
aF0
aa(lp3762
F0
aF0
aF0
aF0
aF0
aa(lp3763
F0
aF0
aF0
aF0
aF0
aa(lp3764
F0
aF0
aF0
aF0
aF0
aa(lp3765
F0
aF0
aF0
aF0
aF0
aa(lp3766
F0
aF0
aF0
aF0
aF0
aa(lp3767
F0
aF0
aF0
aF0
aF0
aa(lp3768
F0
aF0
aF0
aF0
aF0
aa(lp3769
F0
aF0
aF0
aF0
aF0
aa(lp3770
F0
aF0
aF0
aF0
aF0
aa(lp3771
F1
aF0
aF0
aF1
aF0
aa(lp3772
F0
aF0
aF0
aF0
aF0
aa(lp3773
F0
aF0
aF0
aF0
aF0
aa(lp3774
F0
aF0
aF0
aF0
aF0
aa(lp3775
F0
aF0
aF0
aF0
aF0
aa(lp3776
F0
aF0
aF0
aF0
aF0
aa(lp3777
F0
aF0
aF0
aF0
aF0
aa(lp3778
F0
aF0
aF0
aF0
aF0
aa(lp3779
F0
aF0
aF0
aF0
aF0
aa(lp3780
F0
aF0
aF0
aF0
aF0
aa(lp3781
F0
aF0
aF0
aF0
aF0
aa(lp3782
F0
aF0
aF0
aF0
aF0
aa(lp3783
F0
aF0
aF0
aF0
aF0
aa(lp3784
F0
aF0
aF0
aF0
aF0
aa(lp3785
F0
aF0
aF0
aF0
aF0
aa(lp3786
F0
aF0
aF0
aF0
aF0
aa(lp3787
F0
aF0
aF0
aF0
aF0
aa(lp3788
F0
aF0
aF0
aF0
aF0
aa(lp3789
F0
aF0
aF0
aF0
aF0
aa(lp3790
F0
aF0
aF0
aF0
aF0
aa(lp3791
F0
aF0
aF0
aF0
aF0
aa(lp3792
F0
aF0
aF0
aF0
aF0
aa(lp3793
F0
aF0
aF0
aF0
aF0
aa(lp3794
F0
aF0
aF0
aF0
aF0
aa(lp3795
F0
aF0
aF0
aF0
aF0
aa(lp3796
F0
aF0
aF0
aF0
aF0
aa(lp3797
F0
aF0
aF0
aF0
aF0
aa(lp3798
F0
aF0
aF0
aF0
aF0
aa(lp3799
F0
aF0
aF0
aF0
aF0
aa(lp3800
F0
aF0
aF0
aF0
aF0
aa(lp3801
F0
aF0
aF0
aF0
aF0
aa(lp3802
F0
aF0
aF0
aF0
aF0
aa(lp3803
F0
aF0
aF0
aF0
aF0
aa(lp3804
F0
aF0
aF0
aF0
aF0
aa(lp3805
F0
aF0
aF0
aF0
aF0
aa(lp3806
F0
aF0
aF0
aF0
aF0
aa(lp3807
F0
aF0
aF0
aF0
aF0
aa(lp3808
F0
aF0
aF0
aF0
aF0
aa(lp3809
F0
aF0
aF0
aF0
aF0
aa(lp3810
F0
aF0
aF0
aF0
aF0
aa(lp3811
F0
aF0
aF0
aF0
aF0
aa(lp3812
F0
aF0
aF0
aF0
aF0
aa(lp3813
F0
aF0
aF0
aF0
aF0
aa(lp3814
F0
aF0
aF0
aF0
aF0
aa(lp3815
F0
aF0
aF0
aF0
aF0
aa(lp3816
F0
aF0
aF0
aF0
aF0
aa(lp3817
F0
aF0
aF0
aF0
aF0
aa(lp3818
F0
aF0
aF0
aF0
aF0
aa(lp3819
F0
aF0
aF0
aF0
aF0
aa(lp3820
F0
aF0
aF0
aF0
aF0
aa(lp3821
F0
aF0
aF0
aF0
aF0
aa(lp3822
F0
aF0
aF0
aF0
aF0
aa(lp3823
F0
aF0
aF0
aF0
aF0
aa(lp3824
F0
aF0
aF0
aF0
aF0
aa(lp3825
F0
aF0
aF0
aF0
aF0
aa(lp3826
F0
aF0
aF0
aF0
aF0
aa(lp3827
F0
aF0
aF0
aF0
aF0
aa(lp3828
F0
aF0
aF0
aF0
aF0
aa(lp3829
F0
aF0
aF0
aF0
aF0
aaa(lp3830
(lp3831
F0
aF0
aF0
aF0
aF0
aa(lp3832
F0
aF0
aF0
aF0
aF0
aa(lp3833
F0
aF0
aF0
aF0
aF0
aa(lp3834
F0
aF0
aF0
aF0
aF0
aa(lp3835
F0
aF0
aF0
aF0
aF0
aa(lp3836
F0
aF0
aF0
aF0
aF0
aa(lp3837
F0
aF0
aF0
aF0
aF0
aa(lp3838
F0
aF0
aF0
aF0
aF0
aa(lp3839
F0
aF0
aF0
aF0
aF0
aa(lp3840
F0
aF0
aF0
aF0
aF0
aa(lp3841
F0
aF0
aF0
aF0
aF0
aa(lp3842
F0
aF0
aF0
aF0
aF0
aa(lp3843
F0
aF0
aF0
aF0
aF0
aa(lp3844
F0
aF0
aF0
aF0
aF0
aa(lp3845
F0
aF0
aF0
aF0
aF0
aa(lp3846
F0
aF0
aF0
aF0
aF0
aa(lp3847
F0
aF0
aF0
aF0
aF0
aa(lp3848
F0
aF0
aF0
aF0
aF0
aa(lp3849
F0
aF0
aF0
aF0
aF0
aa(lp3850
F0
aF0
aF0
aF0
aF0
aa(lp3851
F0
aF0
aF0
aF0
aF0
aa(lp3852
F0
aF0
aF0
aF0
aF0
aa(lp3853
F0
aF0
aF0
aF0
aF0
aa(lp3854
F0
aF0
aF0
aF0
aF0
aa(lp3855
F0
aF0
aF0
aF0
aF0
aa(lp3856
F0
aF0
aF0
aF0
aF0
aa(lp3857
F0
aF0
aF0
aF0
aF0
aa(lp3858
F0
aF0
aF0
aF0
aF0
aa(lp3859
F0
aF0
aF0
aF0
aF0
aa(lp3860
F0
aF0
aF0
aF0
aF0
aa(lp3861
F1
aF1
aF0
aF1
aF0
aa(lp3862
F0
aF0
aF0
aF0
aF0
aa(lp3863
F0
aF0
aF0
aF0
aF0
aa(lp3864
F0
aF0
aF0
aF0
aF0
aa(lp3865
F0
aF0
aF0
aF0
aF0
aa(lp3866
F0
aF0
aF0
aF0
aF0
aa(lp3867
F0
aF0
aF0
aF0
aF0
aa(lp3868
F0
aF0
aF0
aF0
aF0
aa(lp3869
F0
aF0
aF0
aF0
aF0
aa(lp3870
F0
aF0
aF0
aF0
aF0
aa(lp3871
F0
aF0
aF0
aF0
aF0
aa(lp3872
F0
aF0
aF0
aF0
aF0
aa(lp3873
F0
aF0
aF0
aF0
aF0
aa(lp3874
F0
aF0
aF0
aF0
aF0
aa(lp3875
F0
aF0
aF0
aF0
aF0
aa(lp3876
F0
aF0
aF0
aF0
aF0
aa(lp3877
F0
aF0
aF0
aF0
aF0
aa(lp3878
F0
aF0
aF0
aF0
aF0
aa(lp3879
F0
aF0
aF0
aF0
aF0
aa(lp3880
F0
aF0
aF0
aF0
aF0
aa(lp3881
F0
aF0
aF0
aF0
aF0
aa(lp3882
F0
aF0
aF0
aF0
aF0
aa(lp3883
F0
aF0
aF0
aF0
aF0
aa(lp3884
F0
aF0
aF0
aF0
aF0
aa(lp3885
F0
aF0
aF0
aF0
aF0
aa(lp3886
F0
aF0
aF0
aF0
aF0
aa(lp3887
F0
aF0
aF0
aF0
aF0
aa(lp3888
F0
aF0
aF0
aF0
aF0
aa(lp3889
F0
aF0
aF0
aF0
aF0
aa(lp3890
F0
aF0
aF0
aF0
aF0
aa(lp3891
F0
aF0
aF0
aF0
aF0
aa(lp3892
F0
aF0
aF0
aF0
aF0
aa(lp3893
F0
aF0
aF0
aF0
aF0
aa(lp3894
F0
aF0
aF0
aF0
aF0
aa(lp3895
F0
aF0
aF0
aF0
aF0
aa(lp3896
F0
aF0
aF0
aF0
aF0
aa(lp3897
F0
aF0
aF0
aF0
aF0
aa(lp3898
F0
aF0
aF0
aF0
aF0
aa(lp3899
F0
aF0
aF0
aF0
aF0
aa(lp3900
F0
aF0
aF0
aF0
aF0
aa(lp3901
F0
aF0
aF0
aF0
aF0
aa(lp3902
F0
aF0
aF0
aF0
aF0
aa(lp3903
F0
aF0
aF0
aF0
aF0
aa(lp3904
F0
aF0
aF0
aF0
aF0
aa(lp3905
F0
aF0
aF0
aF0
aF0
aa(lp3906
F0
aF0
aF0
aF0
aF0
aa(lp3907
F0
aF0
aF0
aF0
aF0
aa(lp3908
F0
aF0
aF0
aF0
aF0
aa(lp3909
F0
aF0
aF0
aF0
aF0
aa(lp3910
F0
aF0
aF0
aF0
aF0
aa(lp3911
F0
aF0
aF0
aF0
aF0
aa(lp3912
F0
aF0
aF0
aF0
aF0
aa(lp3913
F0
aF0
aF0
aF0
aF0
aa(lp3914
F0
aF0
aF0
aF0
aF0
aa(lp3915
F0
aF0
aF0
aF0
aF0
aa(lp3916
F0
aF0
aF0
aF0
aF0
aaa(lp3917
(lp3918
F0
aF0
aF0
aF0
aF0
aa(lp3919
F0
aF0
aF0
aF0
aF0
aa(lp3920
F0
aF0
aF0
aF0
aF0
aa(lp3921
F0
aF0
aF0
aF0
aF0
aa(lp3922
F0
aF0
aF0
aF0
aF0
aa(lp3923
F0
aF0
aF0
aF0
aF0
aa(lp3924
F0
aF0
aF0
aF0
aF0
aa(lp3925
F0
aF0
aF0
aF0
aF0
aa(lp3926
F0
aF0
aF0
aF0
aF0
aa(lp3927
F0
aF0
aF0
aF0
aF0
aa(lp3928
F0
aF0
aF0
aF0
aF0
aa(lp3929
F0
aF0
aF0
aF0
aF0
aa(lp3930
F0
aF0
aF0
aF0
aF0
aa(lp3931
F0
aF0
aF0
aF0
aF0
aa(lp3932
F0
aF0
aF0
aF0
aF0
aa(lp3933
F0
aF0
aF0
aF0
aF0
aa(lp3934
F0
aF0
aF0
aF0
aF0
aa(lp3935
F0
aF0
aF0
aF0
aF0
aa(lp3936
F0
aF0
aF0
aF0
aF0
aa(lp3937
F0
aF0
aF0
aF0
aF0
aa(lp3938
F0
aF0
aF0
aF0
aF0
aa(lp3939
F0
aF0
aF0
aF0
aF0
aa(lp3940
F0
aF0
aF0
aF0
aF0
aa(lp3941
F0
aF0
aF0
aF0
aF0
aa(lp3942
F0
aF0
aF0
aF0
aF0
aa(lp3943
F0
aF0
aF0
aF0
aF0
aa(lp3944
F0
aF0
aF0
aF0
aF0
aa(lp3945
F0
aF0
aF0
aF0
aF0
aa(lp3946
F0
aF0
aF0
aF0
aF0
aa(lp3947
F0
aF0
aF0
aF0
aF0
aa(lp3948
F0
aF0
aF0
aF0
aF0
aa(lp3949
F0
aF0
aF0
aF0
aF0
aa(lp3950
F0
aF0
aF0
aF0
aF0
aa(lp3951
F0
aF0
aF0
aF0
aF0
aa(lp3952
F0
aF0
aF0
aF0
aF0
aa(lp3953
F1
aF1
aF0
aF1
aF0
aa(lp3954
F0
aF0
aF0
aF0
aF0
aa(lp3955
F0
aF0
aF0
aF0
aF0
aa(lp3956
F0
aF0
aF0
aF0
aF0
aa(lp3957
F0
aF0
aF0
aF0
aF0
aa(lp3958
F0
aF0
aF0
aF0
aF0
aa(lp3959
F0
aF0
aF0
aF0
aF0
aa(lp3960
F0
aF0
aF0
aF0
aF0
aa(lp3961
F0
aF0
aF0
aF0
aF0
aa(lp3962
F0
aF0
aF0
aF0
aF0
aa(lp3963
F0
aF0
aF0
aF0
aF0
aa(lp3964
F0
aF0
aF0
aF0
aF0
aa(lp3965
F0
aF0
aF0
aF0
aF0
aa(lp3966
F0
aF0
aF0
aF0
aF0
aa(lp3967
F0
aF0
aF0
aF0
aF0
aa(lp3968
F0
aF0
aF0
aF0
aF0
aa(lp3969
F0
aF0
aF0
aF0
aF0
aa(lp3970
F0
aF0
aF0
aF0
aF0
aa(lp3971
F0
aF0
aF0
aF0
aF0
aa(lp3972
F0
aF0
aF0
aF0
aF0
aa(lp3973
F0
aF0
aF0
aF0
aF0
aa(lp3974
F0
aF0
aF0
aF0
aF0
aa(lp3975
F0
aF0
aF0
aF0
aF0
aa(lp3976
F0
aF0
aF0
aF0
aF0
aa(lp3977
F0
aF0
aF0
aF0
aF0
aa(lp3978
F0
aF0
aF0
aF0
aF0
aa(lp3979
F0
aF0
aF0
aF0
aF0
aa(lp3980
F0
aF0
aF0
aF0
aF0
aa(lp3981
F0
aF0
aF0
aF0
aF0
aa(lp3982
F0
aF0
aF0
aF0
aF0
aa(lp3983
F0
aF0
aF0
aF0
aF0
aa(lp3984
F0
aF0
aF0
aF0
aF0
aa(lp3985
F0
aF0
aF0
aF0
aF0
aa(lp3986
F0
aF0
aF0
aF0
aF0
aa(lp3987
F0
aF0
aF0
aF0
aF0
aa(lp3988
F0
aF0
aF0
aF0
aF0
aa(lp3989
F0
aF0
aF0
aF0
aF0
aa(lp3990
F0
aF0
aF0
aF0
aF0
aa(lp3991
F0
aF0
aF0
aF0
aF0
aa(lp3992
F0
aF0
aF0
aF0
aF0
aa(lp3993
F0
aF0
aF0
aF0
aF0
aa(lp3994
F0
aF0
aF0
aF0
aF0
aa(lp3995
F0
aF0
aF0
aF0
aF0
aa(lp3996
F0
aF0
aF0
aF0
aF0
aa(lp3997
F0
aF0
aF0
aF0
aF0
aa(lp3998
F0
aF0
aF0
aF0
aF0
aa(lp3999
F0
aF0
aF0
aF0
aF0
aa(lp4000
F0
aF0
aF0
aF0
aF0
aa(lp4001
F0
aF0
aF0
aF0
aF0
aa(lp4002
F0
aF0
aF0
aF0
aF0
aa(lp4003
F0
aF0
aF0
aF0
aF0
aaa(lp4004
(lp4005
F0
aF0
aF0
aF0
aF0
aa(lp4006
F0
aF0
aF0
aF0
aF0
aa(lp4007
F0
aF0
aF0
aF0
aF0
aa(lp4008
F0
aF0
aF0
aF0
aF0
aa(lp4009
F0
aF0
aF0
aF0
aF0
aa(lp4010
F0
aF0
aF0
aF0
aF0
aa(lp4011
F0
aF0
aF0
aF0
aF0
aa(lp4012
F0
aF0
aF0
aF0
aF0
aa(lp4013
F0
aF0
aF0
aF0
aF0
aa(lp4014
F0
aF0
aF0
aF0
aF0
aa(lp4015
F0
aF0
aF0
aF0
aF0
aa(lp4016
F0
aF0
aF0
aF0
aF0
aa(lp4017
F0
aF0
aF0
aF0
aF0
aa(lp4018
F0
aF0
aF0
aF0
aF0
aa(lp4019
F0
aF0
aF0
aF0
aF0
aa(lp4020
F0
aF0
aF0
aF0
aF0
aa(lp4021
F0
aF0
aF0
aF0
aF0
aa(lp4022
F0
aF0
aF0
aF0
aF0
aa(lp4023
F0
aF0
aF0
aF0
aF0
aa(lp4024
F0
aF0
aF0
aF0
aF0
aa(lp4025
F0
aF0
aF0
aF0
aF0
aa(lp4026
F0
aF0
aF0
aF0
aF0
aa(lp4027
F0
aF0
aF0
aF0
aF0
aa(lp4028
F0
aF0
aF0
aF0
aF0
aa(lp4029
F0
aF0
aF0
aF0
aF0
aa(lp4030
F0
aF0
aF0
aF0
aF0
aa(lp4031
F0
aF0
aF0
aF0
aF0
aa(lp4032
F0
aF0
aF0
aF0
aF0
aa(lp4033
F0
aF0
aF0
aF0
aF0
aa(lp4034
F0
aF0
aF0
aF0
aF0
aa(lp4035
F0
aF0
aF0
aF0
aF0
aa(lp4036
F0
aF0
aF0
aF0
aF0
aa(lp4037
F0
aF0
aF0
aF0
aF0
aa(lp4038
F0
aF0
aF0
aF0
aF0
aa(lp4039
F0
aF0
aF0
aF0
aF0
aa(lp4040
F0
aF0
aF0
aF0
aF0
aa(lp4041
F0
aF0
aF0
aF0
aF0
aa(lp4042
F0
aF0
aF0
aF0
aF0
aa(lp4043
F0
aF0
aF0
aF0
aF0
aa(lp4044
F0
aF0
aF0
aF0
aF0
aa(lp4045
F1
aF0
aF0
aF1
aF0
aa(lp4046
F0
aF0
aF0
aF0
aF0
aa(lp4047
F0
aF0
aF0
aF0
aF0
aa(lp4048
F0
aF0
aF0
aF0
aF0
aa(lp4049
F0
aF0
aF0
aF0
aF0
aa(lp4050
F0
aF0
aF0
aF0
aF0
aa(lp4051
F0
aF0
aF0
aF0
aF0
aa(lp4052
F0
aF0
aF0
aF0
aF0
aa(lp4053
F0
aF0
aF0
aF0
aF0
aa(lp4054
F0
aF0
aF0
aF0
aF0
aa(lp4055
F0
aF0
aF0
aF0
aF0
aa(lp4056
F0
aF0
aF0
aF0
aF0
aa(lp4057
F0
aF0
aF0
aF0
aF0
aa(lp4058
F0
aF0
aF0
aF0
aF0
aa(lp4059
F0
aF0
aF0
aF0
aF0
aa(lp4060
F0
aF0
aF0
aF0
aF0
aa(lp4061
F0
aF0
aF0
aF0
aF0
aa(lp4062
F0
aF0
aF0
aF0
aF0
aa(lp4063
F0
aF0
aF0
aF0
aF0
aa(lp4064
F0
aF0
aF0
aF0
aF0
aa(lp4065
F0
aF0
aF0
aF0
aF0
aa(lp4066
F0
aF0
aF0
aF0
aF0
aa(lp4067
F0
aF0
aF0
aF0
aF0
aa(lp4068
F0
aF0
aF0
aF0
aF0
aa(lp4069
F0
aF0
aF0
aF0
aF0
aa(lp4070
F0
aF0
aF0
aF0
aF0
aa(lp4071
F0
aF0
aF0
aF0
aF0
aa(lp4072
F0
aF0
aF0
aF0
aF0
aa(lp4073
F0
aF0
aF0
aF0
aF0
aa(lp4074
F0
aF0
aF0
aF0
aF0
aa(lp4075
F0
aF0
aF0
aF0
aF0
aa(lp4076
F0
aF0
aF0
aF0
aF0
aa(lp4077
F0
aF0
aF0
aF0
aF0
aa(lp4078
F0
aF0
aF0
aF0
aF0
aa(lp4079
F0
aF0
aF0
aF0
aF0
aa(lp4080
F0
aF0
aF0
aF0
aF0
aa(lp4081
F0
aF0
aF0
aF0
aF0
aa(lp4082
F0
aF0
aF0
aF0
aF0
aa(lp4083
F0
aF0
aF0
aF0
aF0
aa(lp4084
F0
aF0
aF0
aF0
aF0
aa(lp4085
F0
aF0
aF0
aF0
aF0
aa(lp4086
F0
aF0
aF0
aF0
aF0
aa(lp4087
F0
aF0
aF0
aF0
aF0
aa(lp4088
F0
aF0
aF0
aF0
aF0
aa(lp4089
F0
aF0
aF0
aF0
aF0
aa(lp4090
F0
aF0
aF0
aF0
aF0
aaa(lp4091
(lp4092
F0
aF0
aF0
aF0
aF0
aa(lp4093
F0
aF0
aF0
aF0
aF0
aa(lp4094
F0
aF0
aF0
aF0
aF0
aa(lp4095
F0
aF0
aF0
aF0
aF0
aa(lp4096
F0
aF0
aF0
aF0
aF0
aa(lp4097
F0
aF0
aF0
aF0
aF0
aa(lp4098
F0
aF0
aF0
aF0
aF0
aa(lp4099
F0
aF0
aF0
aF0
aF0
aa(lp4100
F0
aF0
aF0
aF0
aF0
aa(lp4101
F0
aF0
aF0
aF0
aF0
aa(lp4102
F0
aF0
aF0
aF0
aF0
aa(lp4103
F0
aF0
aF0
aF0
aF0
aa(lp4104
F0
aF0
aF0
aF0
aF0
aa(lp4105
F0
aF0
aF0
aF0
aF0
aa(lp4106
F0
aF0
aF0
aF0
aF0
aa(lp4107
F0
aF0
aF0
aF0
aF0
aa(lp4108
F0
aF0
aF0
aF0
aF0
aa(lp4109
F0
aF0
aF0
aF0
aF0
aa(lp4110
F0
aF0
aF0
aF0
aF0
aa(lp4111
F0
aF0
aF0
aF0
aF0
aa(lp4112
F0
aF0
aF0
aF0
aF0
aa(lp4113
F0
aF0
aF0
aF0
aF0
aa(lp4114
F0
aF0
aF0
aF0
aF0
aa(lp4115
F0
aF0
aF0
aF0
aF0
aa(lp4116
F0
aF0
aF0
aF0
aF0
aa(lp4117
F0
aF0
aF0
aF0
aF0
aa(lp4118
F0
aF0
aF0
aF0
aF0
aa(lp4119
F0
aF0
aF0
aF0
aF0
aa(lp4120
F0
aF0
aF0
aF0
aF0
aa(lp4121
F0
aF0
aF0
aF0
aF0
aa(lp4122
F0
aF0
aF0
aF0
aF0
aa(lp4123
F0
aF0
aF0
aF0
aF0
aa(lp4124
F0
aF0
aF0
aF0
aF0
aa(lp4125
F0
aF0
aF0
aF0
aF0
aa(lp4126
F0
aF0
aF0
aF0
aF0
aa(lp4127
F0
aF0
aF0
aF0
aF0
aa(lp4128
F0
aF0
aF0
aF0
aF0
aa(lp4129
F0
aF0
aF0
aF0
aF0
aa(lp4130
F0
aF0
aF0
aF0
aF0
aa(lp4131
F0
aF0
aF0
aF0
aF0
aa(lp4132
F0
aF0
aF0
aF0
aF0
aa(lp4133
F0
aF0
aF0
aF0
aF0
aa(lp4134
F0
aF0
aF0
aF0
aF0
aa(lp4135
F0
aF0
aF0
aF0
aF0
aa(lp4136
F1
aF0
aF0
aF1
aF0
aa(lp4137
F0
aF0
aF0
aF0
aF0
aa(lp4138
F0
aF0
aF0
aF0
aF0
aa(lp4139
F0
aF0
aF0
aF0
aF0
aa(lp4140
F0
aF0
aF0
aF0
aF0
aa(lp4141
F0
aF0
aF0
aF0
aF0
aa(lp4142
F0
aF0
aF0
aF0
aF0
aa(lp4143
F0
aF0
aF0
aF0
aF0
aa(lp4144
F0
aF0
aF0
aF0
aF0
aa(lp4145
F0
aF0
aF0
aF0
aF0
aa(lp4146
F0
aF0
aF0
aF0
aF0
aa(lp4147
F0
aF0
aF0
aF0
aF0
aa(lp4148
F0
aF0
aF0
aF0
aF0
aa(lp4149
F0
aF0
aF0
aF0
aF0
aa(lp4150
F0
aF0
aF0
aF0
aF0
aa(lp4151
F0
aF0
aF0
aF0
aF0
aa(lp4152
F0
aF0
aF0
aF0
aF0
aa(lp4153
F0
aF0
aF0
aF0
aF0
aa(lp4154
F0
aF0
aF0
aF0
aF0
aa(lp4155
F0
aF0
aF0
aF0
aF0
aa(lp4156
F0
aF0
aF0
aF0
aF0
aa(lp4157
F0
aF0
aF0
aF0
aF0
aa(lp4158
F0
aF0
aF0
aF0
aF0
aa(lp4159
F0
aF0
aF0
aF0
aF0
aa(lp4160
F0
aF0
aF0
aF0
aF0
aa(lp4161
F0
aF0
aF0
aF0
aF0
aa(lp4162
F0
aF0
aF0
aF0
aF0
aa(lp4163
F0
aF0
aF0
aF0
aF0
aa(lp4164
F0
aF0
aF0
aF0
aF0
aa(lp4165
F0
aF0
aF0
aF0
aF0
aa(lp4166
F0
aF0
aF0
aF0
aF0
aa(lp4167
F0
aF0
aF0
aF0
aF0
aa(lp4168
F0
aF0
aF0
aF0
aF0
aa(lp4169
F0
aF0
aF0
aF0
aF0
aa(lp4170
F0
aF0
aF0
aF0
aF0
aa(lp4171
F0
aF0
aF0
aF0
aF0
aa(lp4172
F0
aF0
aF0
aF0
aF0
aa(lp4173
F0
aF0
aF0
aF0
aF0
aa(lp4174
F0
aF0
aF0
aF0
aF0
aa(lp4175
F0
aF0
aF0
aF0
aF0
aa(lp4176
F0
aF0
aF0
aF0
aF0
aa(lp4177
F0
aF0
aF0
aF0
aF0
aaa(lp4178
(lp4179
F0
aF0
aF0
aF0
aF0
aa(lp4180
F0
aF0
aF0
aF0
aF0
aa(lp4181
F0
aF0
aF0
aF0
aF0
aa(lp4182
F0
aF0
aF0
aF0
aF0
aa(lp4183
F0
aF0
aF0
aF0
aF0
aa(lp4184
F0
aF0
aF0
aF0
aF0
aa(lp4185
F0
aF0
aF0
aF0
aF0
aa(lp4186
F0
aF0
aF0
aF0
aF0
aa(lp4187
F0
aF0
aF0
aF0
aF0
aa(lp4188
F0
aF0
aF0
aF0
aF0
aa(lp4189
F0
aF0
aF0
aF0
aF0
aa(lp4190
F0
aF0
aF0
aF0
aF0
aa(lp4191
F0
aF0
aF0
aF0
aF0
aa(lp4192
F0
aF0
aF0
aF0
aF0
aa(lp4193
F0
aF0
aF0
aF0
aF0
aa(lp4194
F0
aF0
aF0
aF0
aF0
aa(lp4195
F0
aF0
aF0
aF0
aF0
aa(lp4196
F0
aF0
aF0
aF0
aF0
aa(lp4197
F0
aF0
aF0
aF0
aF0
aa(lp4198
F0
aF0
aF0
aF0
aF0
aa(lp4199
F0
aF0
aF0
aF0
aF0
aa(lp4200
F0
aF0
aF0
aF0
aF0
aa(lp4201
F0
aF0
aF0
aF0
aF0
aa(lp4202
F0
aF0
aF0
aF0
aF0
aa(lp4203
F0
aF0
aF0
aF0
aF0
aa(lp4204
F0
aF0
aF0
aF0
aF0
aa(lp4205
F0
aF0
aF0
aF0
aF0
aa(lp4206
F0
aF0
aF0
aF0
aF0
aa(lp4207
F0
aF0
aF0
aF0
aF0
aa(lp4208
F0
aF0
aF0
aF0
aF0
aa(lp4209
F0
aF0
aF0
aF0
aF0
aa(lp4210
F0
aF0
aF0
aF0
aF0
aa(lp4211
F0
aF0
aF0
aF0
aF0
aa(lp4212
F1
aF0
aF0
aF1
aF0
aa(lp4213
F0
aF0
aF0
aF0
aF0
aa(lp4214
F0
aF0
aF0
aF0
aF0
aa(lp4215
F0
aF0
aF0
aF0
aF0
aa(lp4216
F0
aF0
aF0
aF0
aF0
aa(lp4217
F0
aF0
aF0
aF0
aF0
aa(lp4218
F0
aF0
aF0
aF0
aF0
aa(lp4219
F0
aF0
aF0
aF0
aF0
aa(lp4220
F0
aF0
aF0
aF0
aF0
aa(lp4221
F0
aF0
aF0
aF0
aF0
aa(lp4222
F0
aF0
aF0
aF0
aF0
aa(lp4223
F0
aF0
aF0
aF0
aF0
aa(lp4224
F0
aF0
aF0
aF0
aF0
aa(lp4225
F0
aF0
aF0
aF0
aF0
aa(lp4226
F0
aF0
aF0
aF0
aF0
aa(lp4227
F0
aF0
aF0
aF0
aF0
aa(lp4228
F0
aF0
aF0
aF0
aF0
aa(lp4229
F0
aF0
aF0
aF0
aF0
aa(lp4230
F0
aF0
aF0
aF0
aF0
aa(lp4231
F0
aF0
aF0
aF0
aF0
aa(lp4232
F0
aF0
aF0
aF0
aF0
aa(lp4233
F0
aF0
aF0
aF0
aF0
aa(lp4234
F0
aF0
aF0
aF0
aF0
aa(lp4235
F0
aF0
aF0
aF0
aF0
aa(lp4236
F0
aF0
aF0
aF0
aF0
aa(lp4237
F0
aF0
aF0
aF0
aF0
aa(lp4238
F0
aF0
aF0
aF0
aF0
aa(lp4239
F0
aF0
aF0
aF0
aF0
aa(lp4240
F0
aF0
aF0
aF0
aF0
aa(lp4241
F0
aF0
aF0
aF0
aF0
aa(lp4242
F0
aF0
aF0
aF0
aF0
aa(lp4243
F0
aF0
aF0
aF0
aF0
aa(lp4244
F0
aF0
aF0
aF0
aF0
aa(lp4245
F0
aF0
aF0
aF0
aF0
aa(lp4246
F0
aF0
aF0
aF0
aF0
aa(lp4247
F0
aF0
aF0
aF0
aF0
aa(lp4248
F0
aF0
aF0
aF0
aF0
aa(lp4249
F0
aF0
aF0
aF0
aF0
aa(lp4250
F0
aF0
aF0
aF0
aF0
aa(lp4251
F0
aF0
aF0
aF0
aF0
aa(lp4252
F0
aF0
aF0
aF0
aF0
aa(lp4253
F0
aF0
aF0
aF0
aF0
aa(lp4254
F0
aF0
aF0
aF0
aF0
aa(lp4255
F0
aF0
aF0
aF0
aF0
aa(lp4256
F0
aF0
aF0
aF0
aF0
aa(lp4257
F0
aF0
aF0
aF0
aF0
aa(lp4258
F0
aF0
aF0
aF0
aF0
aa(lp4259
F0
aF0
aF0
aF0
aF0
aa(lp4260
F0
aF0
aF0
aF0
aF0
aa(lp4261
F0
aF0
aF0
aF0
aF0
aa(lp4262
F0
aF0
aF0
aF0
aF0
aa(lp4263
F0
aF0
aF0
aF0
aF0
aa(lp4264
F0
aF0
aF0
aF0
aF0
aaa(lp4265
(lp4266
F0
aF0
aF0
aF0
aF0
aa(lp4267
F0
aF0
aF0
aF0
aF0
aa(lp4268
F0
aF0
aF0
aF0
aF0
aa(lp4269
F0
aF0
aF0
aF0
aF0
aa(lp4270
F0
aF0
aF0
aF0
aF0
aa(lp4271
F0
aF0
aF0
aF0
aF0
aa(lp4272
F0
aF0
aF0
aF0
aF0
aa(lp4273
F0
aF0
aF0
aF0
aF0
aa(lp4274
F0
aF0
aF0
aF0
aF0
aa(lp4275
F0
aF0
aF0
aF0
aF0
aa(lp4276
F0
aF0
aF0
aF0
aF0
aa(lp4277
F0
aF0
aF0
aF0
aF0
aa(lp4278
F0
aF0
aF0
aF0
aF0
aa(lp4279
F0
aF0
aF0
aF0
aF0
aa(lp4280
F0
aF0
aF0
aF0
aF0
aa(lp4281
F0
aF0
aF0
aF0
aF0
aa(lp4282
F0
aF0
aF0
aF0
aF0
aa(lp4283
F0
aF0
aF0
aF0
aF0
aa(lp4284
F0
aF0
aF0
aF0
aF0
aa(lp4285
F0
aF0
aF0
aF0
aF0
aa(lp4286
F1
aF0
aF0
aF1
aF0
aa(lp4287
F0
aF0
aF0
aF0
aF0
aa(lp4288
F0
aF0
aF0
aF0
aF0
aa(lp4289
F0
aF0
aF0
aF0
aF0
aa(lp4290
F0
aF0
aF0
aF0
aF0
aa(lp4291
F0
aF0
aF0
aF0
aF0
aa(lp4292
F0
aF0
aF0
aF0
aF0
aa(lp4293
F0
aF0
aF0
aF0
aF0
aa(lp4294
F0
aF0
aF0
aF0
aF0
aa(lp4295
F0
aF0
aF0
aF0
aF0
aa(lp4296
F0
aF0
aF0
aF0
aF0
aa(lp4297
F0
aF0
aF0
aF0
aF0
aa(lp4298
F0
aF0
aF0
aF0
aF0
aa(lp4299
F0
aF0
aF0
aF0
aF0
aa(lp4300
F0
aF0
aF0
aF0
aF0
aa(lp4301
F0
aF0
aF0
aF0
aF0
aa(lp4302
F0
aF0
aF0
aF0
aF0
aa(lp4303
F0
aF0
aF0
aF0
aF0
aa(lp4304
F0
aF0
aF0
aF0
aF0
aa(lp4305
F0
aF0
aF0
aF0
aF0
aa(lp4306
F0
aF0
aF0
aF0
aF0
aa(lp4307
F0
aF0
aF0
aF0
aF0
aa(lp4308
F0
aF0
aF0
aF0
aF0
aa(lp4309
F0
aF0
aF0
aF0
aF0
aa(lp4310
F0
aF0
aF0
aF0
aF0
aa(lp4311
F0
aF0
aF0
aF0
aF0
aa(lp4312
F0
aF0
aF0
aF0
aF0
aa(lp4313
F0
aF0
aF0
aF0
aF0
aa(lp4314
F0
aF0
aF0
aF0
aF0
aa(lp4315
F0
aF0
aF0
aF0
aF0
aa(lp4316
F0
aF0
aF0
aF0
aF0
aa(lp4317
F0
aF0
aF0
aF0
aF0
aa(lp4318
F0
aF0
aF0
aF0
aF0
aa(lp4319
F0
aF0
aF0
aF0
aF0
aa(lp4320
F0
aF0
aF0
aF0
aF0
aa(lp4321
F0
aF0
aF0
aF0
aF0
aa(lp4322
F0
aF0
aF0
aF0
aF0
aa(lp4323
F0
aF0
aF0
aF0
aF0
aa(lp4324
F0
aF0
aF0
aF0
aF0
aa(lp4325
F0
aF0
aF0
aF0
aF0
aa(lp4326
F0
aF0
aF0
aF0
aF0
aa(lp4327
F0
aF0
aF0
aF0
aF0
aa(lp4328
F0
aF0
aF0
aF0
aF0
aa(lp4329
F0
aF0
aF0
aF0
aF0
aa(lp4330
F0
aF0
aF0
aF0
aF0
aa(lp4331
F0
aF0
aF0
aF0
aF0
aa(lp4332
F0
aF0
aF0
aF0
aF0
aa(lp4333
F0
aF0
aF0
aF0
aF0
aa(lp4334
F0
aF0
aF0
aF0
aF0
aa(lp4335
F0
aF0
aF0
aF0
aF0
aa(lp4336
F0
aF0
aF0
aF0
aF0
aa(lp4337
F0
aF0
aF0
aF0
aF0
aa(lp4338
F0
aF0
aF0
aF0
aF0
aa(lp4339
F0
aF0
aF0
aF0
aF0
aa(lp4340
F0
aF0
aF0
aF0
aF0
aa(lp4341
F0
aF0
aF0
aF0
aF0
aa(lp4342
F0
aF0
aF0
aF0
aF0
aa(lp4343
F0
aF0
aF0
aF0
aF0
aa(lp4344
F0
aF0
aF0
aF0
aF0
aa(lp4345
F0
aF0
aF0
aF0
aF0
aa(lp4346
F0
aF0
aF0
aF0
aF0
aa(lp4347
F0
aF0
aF0
aF0
aF0
aa(lp4348
F0
aF0
aF0
aF0
aF0
aa(lp4349
F0
aF0
aF0
aF0
aF0
aa(lp4350
F0
aF0
aF0
aF0
aF0
aa(lp4351
F0
aF0
aF0
aF0
aF0
aaa(lp4352
(lp4353
F0
aF0
aF0
aF0
aF0
aa(lp4354
F0
aF0
aF0
aF0
aF0
aa(lp4355
F0
aF0
aF0
aF0
aF0
aa(lp4356
F0
aF0
aF0
aF0
aF0
aa(lp4357
F0
aF0
aF0
aF0
aF0
aa(lp4358
F0
aF0
aF0
aF0
aF0
aa(lp4359
F0
aF0
aF0
aF0
aF0
aa(lp4360
F0
aF0
aF0
aF0
aF0
aa(lp4361
F0
aF0
aF0
aF0
aF0
aa(lp4362
F0
aF0
aF0
aF0
aF0
aa(lp4363
F0
aF0
aF0
aF0
aF0
aa(lp4364
F0
aF0
aF0
aF0
aF0
aa(lp4365
F0
aF0
aF0
aF0
aF0
aa(lp4366
F0
aF0
aF0
aF0
aF0
aa(lp4367
F0
aF0
aF0
aF0
aF0
aa(lp4368
F0
aF0
aF0
aF0
aF0
aa(lp4369
F0
aF0
aF0
aF0
aF0
aa(lp4370
F0
aF0
aF0
aF0
aF0
aa(lp4371
F0
aF0
aF0
aF0
aF0
aa(lp4372
F0
aF0
aF0
aF0
aF0
aa(lp4373
F0
aF0
aF0
aF0
aF0
aa(lp4374
F0
aF0
aF0
aF0
aF0
aa(lp4375
F0
aF0
aF0
aF0
aF0
aa(lp4376
F0
aF0
aF0
aF0
aF0
aa(lp4377
F0
aF0
aF0
aF0
aF0
aa(lp4378
F0
aF0
aF0
aF0
aF0
aa(lp4379
F0
aF0
aF0
aF0
aF0
aa(lp4380
F0
aF0
aF0
aF0
aF0
aa(lp4381
F0
aF0
aF0
aF0
aF0
aa(lp4382
F0
aF0
aF0
aF0
aF0
aa(lp4383
F0
aF0
aF0
aF0
aF0
aa(lp4384
F0
aF0
aF0
aF0
aF0
aa(lp4385
F0
aF0
aF0
aF0
aF0
aa(lp4386
F0
aF0
aF0
aF0
aF0
aa(lp4387
F1
aF0
aF0
aF1
aF0
aa(lp4388
F0
aF0
aF0
aF0
aF0
aa(lp4389
F0
aF0
aF0
aF0
aF0
aa(lp4390
F0
aF0
aF0
aF0
aF0
aa(lp4391
F0
aF0
aF0
aF0
aF0
aa(lp4392
F0
aF0
aF0
aF0
aF0
aa(lp4393
F0
aF0
aF0
aF0
aF0
aa(lp4394
F0
aF0
aF0
aF0
aF0
aa(lp4395
F0
aF0
aF0
aF0
aF0
aa(lp4396
F0
aF0
aF0
aF0
aF0
aa(lp4397
F0
aF0
aF0
aF0
aF0
aa(lp4398
F0
aF0
aF0
aF0
aF0
aa(lp4399
F0
aF0
aF0
aF0
aF0
aa(lp4400
F0
aF0
aF0
aF0
aF0
aa(lp4401
F0
aF0
aF0
aF0
aF0
aa(lp4402
F0
aF0
aF0
aF0
aF0
aa(lp4403
F0
aF0
aF0
aF0
aF0
aa(lp4404
F0
aF0
aF0
aF0
aF0
aa(lp4405
F0
aF0
aF0
aF0
aF0
aa(lp4406
F0
aF0
aF0
aF0
aF0
aa(lp4407
F0
aF0
aF0
aF0
aF0
aa(lp4408
F0
aF0
aF0
aF0
aF0
aa(lp4409
F0
aF0
aF0
aF0
aF0
aa(lp4410
F0
aF0
aF0
aF0
aF0
aa(lp4411
F0
aF0
aF0
aF0
aF0
aa(lp4412
F0
aF0
aF0
aF0
aF0
aa(lp4413
F0
aF0
aF0
aF0
aF0
aa(lp4414
F0
aF0
aF0
aF0
aF0
aa(lp4415
F0
aF0
aF0
aF0
aF0
aa(lp4416
F0
aF0
aF0
aF0
aF0
aa(lp4417
F0
aF0
aF0
aF0
aF0
aa(lp4418
F0
aF0
aF0
aF0
aF0
aa(lp4419
F0
aF0
aF0
aF0
aF0
aa(lp4420
F0
aF0
aF0
aF0
aF0
aa(lp4421
F0
aF0
aF0
aF0
aF0
aa(lp4422
F0
aF0
aF0
aF0
aF0
aa(lp4423
F0
aF0
aF0
aF0
aF0
aa(lp4424
F0
aF0
aF0
aF0
aF0
aa(lp4425
F0
aF0
aF0
aF0
aF0
aa(lp4426
F0
aF0
aF0
aF0
aF0
aa(lp4427
F0
aF0
aF0
aF0
aF0
aa(lp4428
F0
aF0
aF0
aF0
aF0
aa(lp4429
F0
aF0
aF0
aF0
aF0
aa(lp4430
F0
aF0
aF0
aF0
aF0
aa(lp4431
F0
aF0
aF0
aF0
aF0
aa(lp4432
F0
aF0
aF0
aF0
aF0
aa(lp4433
F0
aF0
aF0
aF0
aF0
aa(lp4434
F0
aF0
aF0
aF0
aF0
aa(lp4435
F0
aF0
aF0
aF0
aF0
aa(lp4436
F0
aF0
aF0
aF0
aF0
aa(lp4437
F0
aF0
aF0
aF0
aF0
aa(lp4438
F0
aF0
aF0
aF0
aF0
aaa(lp4439
(lp4440
F0
aF0
aF0
aF0
aF0
aa(lp4441
F0
aF0
aF0
aF0
aF0
aa(lp4442
F0
aF0
aF0
aF0
aF0
aa(lp4443
F0
aF0
aF0
aF0
aF0
aa(lp4444
F0
aF0
aF0
aF0
aF0
aa(lp4445
F0
aF0
aF0
aF0
aF0
aa(lp4446
F0
aF0
aF0
aF0
aF0
aa(lp4447
F0
aF0
aF0
aF0
aF0
aa(lp4448
F0
aF0
aF0
aF0
aF0
aa(lp4449
F0
aF0
aF0
aF0
aF0
aa(lp4450
F0
aF0
aF0
aF0
aF0
aa(lp4451
F0
aF0
aF0
aF0
aF0
aa(lp4452
F0
aF0
aF0
aF0
aF0
aa(lp4453
F0
aF0
aF0
aF0
aF0
aa(lp4454
F0
aF0
aF0
aF0
aF0
aa(lp4455
F0
aF0
aF0
aF0
aF0
aa(lp4456
F0
aF0
aF0
aF0
aF0
aa(lp4457
F0
aF0
aF0
aF0
aF0
aa(lp4458
F0
aF0
aF0
aF0
aF0
aa(lp4459
F0
aF0
aF0
aF0
aF0
aa(lp4460
F0
aF0
aF0
aF0
aF0
aa(lp4461
F0
aF0
aF0
aF0
aF0
aa(lp4462
F0
aF0
aF0
aF0
aF0
aa(lp4463
F0
aF0
aF0
aF0
aF0
aa(lp4464
F0
aF0
aF0
aF0
aF0
aa(lp4465
F0
aF0
aF0
aF0
aF0
aa(lp4466
F0
aF0
aF0
aF0
aF0
aa(lp4467
F0
aF0
aF0
aF0
aF0
aa(lp4468
F0
aF0
aF0
aF0
aF0
aa(lp4469
F0
aF0
aF0
aF0
aF0
aa(lp4470
F0
aF0
aF0
aF0
aF0
aa(lp4471
F0
aF0
aF0
aF0
aF0
aa(lp4472
F0
aF0
aF0
aF0
aF0
aa(lp4473
F0
aF0
aF0
aF0
aF0
aa(lp4474
F0
aF0
aF0
aF0
aF0
aa(lp4475
F0
aF0
aF0
aF0
aF0
aa(lp4476
F0
aF0
aF0
aF0
aF0
aa(lp4477
F0
aF0
aF0
aF0
aF0
aa(lp4478
F0
aF0
aF0
aF0
aF0
aa(lp4479
F0
aF0
aF0
aF0
aF0
aa(lp4480
F1
aF0
aF0
aF1
aF0
aa(lp4481
F0
aF0
aF0
aF0
aF0
aa(lp4482
F0
aF0
aF0
aF0
aF0
aa(lp4483
F0
aF0
aF0
aF0
aF0
aa(lp4484
F0
aF0
aF0
aF0
aF0
aa(lp4485
F0
aF0
aF0
aF0
aF0
aa(lp4486
F0
aF0
aF0
aF0
aF0
aa(lp4487
F0
aF0
aF0
aF0
aF0
aa(lp4488
F0
aF0
aF0
aF0
aF0
aa(lp4489
F0
aF0
aF0
aF0
aF0
aa(lp4490
F0
aF0
aF0
aF0
aF0
aa(lp4491
F0
aF0
aF0
aF0
aF0
aa(lp4492
F0
aF0
aF0
aF0
aF0
aa(lp4493
F0
aF0
aF0
aF0
aF0
aa(lp4494
F0
aF0
aF0
aF0
aF0
aa(lp4495
F0
aF0
aF0
aF0
aF0
aa(lp4496
F0
aF0
aF0
aF0
aF0
aa(lp4497
F0
aF0
aF0
aF0
aF0
aa(lp4498
F0
aF0
aF0
aF0
aF0
aa(lp4499
F0
aF0
aF0
aF0
aF0
aa(lp4500
F0
aF0
aF0
aF0
aF0
aa(lp4501
F0
aF0
aF0
aF0
aF0
aa(lp4502
F0
aF0
aF0
aF0
aF0
aa(lp4503
F0
aF0
aF0
aF0
aF0
aa(lp4504
F0
aF0
aF0
aF0
aF0
aa(lp4505
F0
aF0
aF0
aF0
aF0
aa(lp4506
F0
aF0
aF0
aF0
aF0
aa(lp4507
F0
aF0
aF0
aF0
aF0
aa(lp4508
F0
aF0
aF0
aF0
aF0
aa(lp4509
F0
aF0
aF0
aF0
aF0
aa(lp4510
F0
aF0
aF0
aF0
aF0
aa(lp4511
F0
aF0
aF0
aF0
aF0
aa(lp4512
F0
aF0
aF0
aF0
aF0
aa(lp4513
F0
aF0
aF0
aF0
aF0
aa(lp4514
F0
aF0
aF0
aF0
aF0
aa(lp4515
F0
aF0
aF0
aF0
aF0
aa(lp4516
F0
aF0
aF0
aF0
aF0
aa(lp4517
F0
aF0
aF0
aF0
aF0
aa(lp4518
F0
aF0
aF0
aF0
aF0
aa(lp4519
F0
aF0
aF0
aF0
aF0
aa(lp4520
F0
aF0
aF0
aF0
aF0
aa(lp4521
F0
aF0
aF0
aF0
aF0
aa(lp4522
F0
aF0
aF0
aF0
aF0
aa(lp4523
F0
aF0
aF0
aF0
aF0
aa(lp4524
F0
aF0
aF0
aF0
aF0
aa(lp4525
F0
aF0
aF0
aF0
aF0
aaa(lp4526
(lp4527
F0
aF0
aF0
aF0
aF0
aa(lp4528
F0
aF0
aF0
aF0
aF0
aa(lp4529
F0
aF0
aF0
aF0
aF0
aa(lp4530
F0
aF0
aF0
aF0
aF0
aa(lp4531
F0
aF0
aF0
aF0
aF0
aa(lp4532
F0
aF0
aF0
aF0
aF0
aa(lp4533
F0
aF0
aF0
aF0
aF0
aa(lp4534
F0
aF0
aF0
aF0
aF0
aa(lp4535
F0
aF0
aF0
aF0
aF0
aa(lp4536
F0
aF0
aF0
aF0
aF0
aa(lp4537
F0
aF0
aF0
aF0
aF0
aa(lp4538
F0
aF0
aF0
aF0
aF0
aa(lp4539
F0
aF0
aF0
aF0
aF0
aa(lp4540
F0
aF0
aF0
aF0
aF0
aa(lp4541
F0
aF0
aF0
aF0
aF0
aa(lp4542
F0
aF0
aF0
aF0
aF0
aa(lp4543
F0
aF0
aF0
aF0
aF0
aa(lp4544
F0
aF0
aF0
aF0
aF0
aa(lp4545
F1
aF0
aF0
aF1
aF0
aa(lp4546
F0
aF0
aF0
aF0
aF0
aa(lp4547
F0
aF0
aF0
aF0
aF0
aa(lp4548
F0
aF0
aF0
aF0
aF0
aa(lp4549
F0
aF0
aF0
aF0
aF0
aa(lp4550
F0
aF0
aF0
aF0
aF0
aa(lp4551
F0
aF0
aF0
aF0
aF0
aa(lp4552
F0
aF0
aF0
aF0
aF0
aa(lp4553
F0
aF0
aF0
aF0
aF0
aa(lp4554
F0
aF0
aF0
aF0
aF0
aa(lp4555
F0
aF0
aF0
aF0
aF0
aa(lp4556
F0
aF0
aF0
aF0
aF0
aa(lp4557
F0
aF0
aF0
aF0
aF0
aa(lp4558
F0
aF0
aF0
aF0
aF0
aa(lp4559
F0
aF0
aF0
aF0
aF0
aa(lp4560
F0
aF0
aF0
aF0
aF0
aa(lp4561
F0
aF0
aF0
aF0
aF0
aa(lp4562
F0
aF0
aF0
aF0
aF0
aa(lp4563
F0
aF0
aF0
aF0
aF0
aa(lp4564
F0
aF0
aF0
aF0
aF0
aa(lp4565
F0
aF0
aF0
aF0
aF0
aa(lp4566
F0
aF0
aF0
aF0
aF0
aa(lp4567
F0
aF0
aF0
aF0
aF0
aa(lp4568
F0
aF0
aF0
aF0
aF0
aa(lp4569
F0
aF0
aF0
aF0
aF0
aa(lp4570
F0
aF0
aF0
aF0
aF0
aa(lp4571
F0
aF0
aF0
aF0
aF0
aa(lp4572
F0
aF0
aF0
aF0
aF0
aa(lp4573
F0
aF0
aF0
aF0
aF0
aa(lp4574
F0
aF0
aF0
aF0
aF0
aa(lp4575
F0
aF0
aF0
aF0
aF0
aa(lp4576
F0
aF0
aF0
aF0
aF0
aa(lp4577
F0
aF0
aF0
aF0
aF0
aa(lp4578
F0
aF0
aF0
aF0
aF0
aa(lp4579
F0
aF0
aF0
aF0
aF0
aa(lp4580
F0
aF0
aF0
aF0
aF0
aa(lp4581
F0
aF0
aF0
aF0
aF0
aa(lp4582
F0
aF0
aF0
aF0
aF0
aa(lp4583
F0
aF0
aF0
aF0
aF0
aa(lp4584
F0
aF0
aF0
aF0
aF0
aa(lp4585
F0
aF0
aF0
aF0
aF0
aa(lp4586
F0
aF0
aF0
aF0
aF0
aa(lp4587
F0
aF0
aF0
aF0
aF0
aa(lp4588
F0
aF0
aF0
aF0
aF0
aa(lp4589
F0
aF0
aF0
aF0
aF0
aa(lp4590
F0
aF0
aF0
aF0
aF0
aa(lp4591
F0
aF0
aF0
aF0
aF0
aa(lp4592
F0
aF0
aF0
aF0
aF0
aa(lp4593
F0
aF0
aF0
aF0
aF0
aa(lp4594
F0
aF0
aF0
aF0
aF0
aa(lp4595
F0
aF0
aF0
aF0
aF0
aa(lp4596
F0
aF0
aF0
aF0
aF0
aa(lp4597
F0
aF0
aF0
aF0
aF0
aa(lp4598
F0
aF0
aF0
aF0
aF0
aa(lp4599
F0
aF0
aF0
aF0
aF0
aa(lp4600
F0
aF0
aF0
aF0
aF0
aa(lp4601
F0
aF0
aF0
aF0
aF0
aa(lp4602
F0
aF0
aF0
aF0
aF0
aa(lp4603
F0
aF0
aF0
aF0
aF0
aa(lp4604
F0
aF0
aF0
aF0
aF0
aa(lp4605
F0
aF0
aF0
aF0
aF0
aa(lp4606
F0
aF0
aF0
aF0
aF0
aa(lp4607
F0
aF0
aF0
aF0
aF0
aa(lp4608
F0
aF0
aF0
aF0
aF0
aa(lp4609
F0
aF0
aF0
aF0
aF0
aa(lp4610
F0
aF0
aF0
aF0
aF0
aa(lp4611
F0
aF0
aF0
aF0
aF0
aa(lp4612
F0
aF0
aF0
aF0
aF0
aaa(lp4613
(lp4614
F0
aF0
aF0
aF0
aF0
aa(lp4615
F0
aF0
aF0
aF0
aF0
aa(lp4616
F0
aF0
aF0
aF0
aF0
aa(lp4617
F0
aF0
aF0
aF0
aF0
aa(lp4618
F0
aF0
aF0
aF0
aF0
aa(lp4619
F0
aF0
aF0
aF0
aF0
aa(lp4620
F0
aF0
aF0
aF0
aF0
aa(lp4621
F0
aF0
aF0
aF0
aF0
aa(lp4622
F0
aF0
aF0
aF0
aF0
aa(lp4623
F0
aF0
aF0
aF0
aF0
aa(lp4624
F0
aF0
aF0
aF0
aF0
aa(lp4625
F0
aF0
aF0
aF0
aF0
aa(lp4626
F0
aF0
aF0
aF0
aF0
aa(lp4627
F0
aF0
aF0
aF0
aF0
aa(lp4628
F0
aF0
aF0
aF0
aF0
aa(lp4629
F0
aF0
aF0
aF0
aF0
aa(lp4630
F0
aF0
aF0
aF0
aF0
aa(lp4631
F0
aF0
aF0
aF0
aF0
aa(lp4632
F0
aF0
aF0
aF0
aF0
aa(lp4633
F0
aF0
aF0
aF0
aF0
aa(lp4634
F0
aF0
aF0
aF0
aF0
aa(lp4635
F0
aF0
aF0
aF0
aF0
aa(lp4636
F0
aF0
aF0
aF0
aF0
aa(lp4637
F0
aF0
aF0
aF0
aF0
aa(lp4638
F0
aF0
aF0
aF0
aF0
aa(lp4639
F0
aF0
aF0
aF0
aF0
aa(lp4640
F0
aF0
aF0
aF0
aF0
aa(lp4641
F0
aF0
aF0
aF0
aF0
aa(lp4642
F0
aF0
aF0
aF0
aF0
aa(lp4643
F0
aF0
aF0
aF0
aF0
aa(lp4644
F0
aF0
aF0
aF0
aF0
aa(lp4645
F0
aF0
aF0
aF0
aF0
aa(lp4646
F0
aF0
aF0
aF0
aF0
aa(lp4647
F1
aF0
aF0
aF1
aF0
aa(lp4648
F0
aF0
aF0
aF0
aF0
aa(lp4649
F0
aF0
aF0
aF0
aF0
aa(lp4650
F0
aF0
aF0
aF0
aF0
aa(lp4651
F0
aF0
aF0
aF0
aF0
aa(lp4652
F0
aF0
aF0
aF0
aF0
aa(lp4653
F0
aF0
aF0
aF0
aF0
aa(lp4654
F0
aF0
aF0
aF0
aF0
aa(lp4655
F0
aF0
aF0
aF0
aF0
aa(lp4656
F0
aF0
aF0
aF0
aF0
aa(lp4657
F0
aF0
aF0
aF0
aF0
aa(lp4658
F0
aF0
aF0
aF0
aF0
aa(lp4659
F0
aF0
aF0
aF0
aF0
aa(lp4660
F0
aF0
aF0
aF0
aF0
aa(lp4661
F0
aF0
aF0
aF0
aF0
aa(lp4662
F0
aF0
aF0
aF0
aF0
aa(lp4663
F0
aF0
aF0
aF0
aF0
aa(lp4664
F0
aF0
aF0
aF0
aF0
aa(lp4665
F0
aF0
aF0
aF0
aF0
aa(lp4666
F0
aF0
aF0
aF0
aF0
aa(lp4667
F0
aF0
aF0
aF0
aF0
aa(lp4668
F0
aF0
aF0
aF0
aF0
aa(lp4669
F0
aF0
aF0
aF0
aF0
aa(lp4670
F0
aF0
aF0
aF0
aF0
aa(lp4671
F0
aF0
aF0
aF0
aF0
aa(lp4672
F0
aF0
aF0
aF0
aF0
aa(lp4673
F0
aF0
aF0
aF0
aF0
aa(lp4674
F0
aF0
aF0
aF0
aF0
aa(lp4675
F0
aF0
aF0
aF0
aF0
aa(lp4676
F0
aF0
aF0
aF0
aF0
aa(lp4677
F0
aF0
aF0
aF0
aF0
aa(lp4678
F0
aF0
aF0
aF0
aF0
aa(lp4679
F0
aF0
aF0
aF0
aF0
aa(lp4680
F0
aF0
aF0
aF0
aF0
aa(lp4681
F0
aF0
aF0
aF0
aF0
aa(lp4682
F0
aF0
aF0
aF0
aF0
aa(lp4683
F0
aF0
aF0
aF0
aF0
aa(lp4684
F0
aF0
aF0
aF0
aF0
aa(lp4685
F0
aF0
aF0
aF0
aF0
aa(lp4686
F0
aF0
aF0
aF0
aF0
aa(lp4687
F0
aF0
aF0
aF0
aF0
aa(lp4688
F0
aF0
aF0
aF0
aF0
aa(lp4689
F0
aF0
aF0
aF0
aF0
aa(lp4690
F0
aF0
aF0
aF0
aF0
aa(lp4691
F0
aF0
aF0
aF0
aF0
aa(lp4692
F0
aF0
aF0
aF0
aF0
aa(lp4693
F0
aF0
aF0
aF0
aF0
aa(lp4694
F0
aF0
aF0
aF0
aF0
aa(lp4695
F0
aF0
aF0
aF0
aF0
aa(lp4696
F0
aF0
aF0
aF0
aF0
aa(lp4697
F0
aF0
aF0
aF0
aF0
aa(lp4698
F0
aF0
aF0
aF0
aF0
aa(lp4699
F0
aF0
aF0
aF0
aF0
aaa(lp4700
(lp4701
F0
aF0
aF0
aF0
aF0
aa(lp4702
F0
aF0
aF0
aF0
aF0
aa(lp4703
F0
aF0
aF0
aF0
aF0
aa(lp4704
F0
aF0
aF0
aF0
aF0
aa(lp4705
F0
aF0
aF0
aF0
aF0
aa(lp4706
F0
aF0
aF0
aF0
aF0
aa(lp4707
F0
aF0
aF0
aF0
aF0
aa(lp4708
F0
aF0
aF0
aF0
aF0
aa(lp4709
F0
aF0
aF0
aF0
aF0
aa(lp4710
F0
aF0
aF0
aF0
aF0
aa(lp4711
F0
aF0
aF0
aF0
aF0
aa(lp4712
F0
aF0
aF0
aF0
aF0
aa(lp4713
F0
aF0
aF0
aF0
aF0
aa(lp4714
F0
aF0
aF0
aF0
aF0
aa(lp4715
F0
aF0
aF0
aF0
aF0
aa(lp4716
F0
aF0
aF0
aF0
aF0
aa(lp4717
F0
aF0
aF0
aF0
aF0
aa(lp4718
F0
aF0
aF0
aF0
aF0
aa(lp4719
F0
aF0
aF0
aF0
aF0
aa(lp4720
F0
aF0
aF0
aF0
aF0
aa(lp4721
F0
aF0
aF0
aF0
aF0
aa(lp4722
F0
aF0
aF0
aF0
aF0
aa(lp4723
F0
aF0
aF0
aF0
aF0
aa(lp4724
F0
aF0
aF0
aF0
aF0
aa(lp4725
F0
aF0
aF0
aF0
aF0
aa(lp4726
F0
aF0
aF0
aF0
aF0
aa(lp4727
F0
aF0
aF0
aF0
aF0
aa(lp4728
F0
aF0
aF0
aF0
aF0
aa(lp4729
F0
aF0
aF0
aF0
aF0
aa(lp4730
F0
aF0
aF0
aF0
aF0
aa(lp4731
F0
aF0
aF0
aF0
aF0
aa(lp4732
F0
aF0
aF0
aF0
aF0
aa(lp4733
F0
aF0
aF0
aF0
aF0
aa(lp4734
F0
aF0
aF0
aF0
aF0
aa(lp4735
F0
aF0
aF0
aF0
aF0
aa(lp4736
F0
aF0
aF0
aF0
aF0
aa(lp4737
F0
aF0
aF0
aF0
aF0
aa(lp4738
F0
aF0
aF0
aF0
aF0
aa(lp4739
F0
aF0
aF0
aF0
aF0
aa(lp4740
F0
aF0
aF0
aF0
aF0
aa(lp4741
F0
aF0
aF0
aF0
aF0
aa(lp4742
F0
aF0
aF0
aF0
aF0
aa(lp4743
F0
aF0
aF0
aF0
aF0
aa(lp4744
F0
aF0
aF0
aF0
aF0
aa(lp4745
F0
aF0
aF0
aF0
aF0
aa(lp4746
F0
aF0
aF0
aF0
aF0
aa(lp4747
F0
aF0
aF0
aF0
aF0
aa(lp4748
F0
aF0
aF0
aF0
aF0
aa(lp4749
F1
aF1
aF0
aF1
aF0
aa(lp4750
F0
aF0
aF0
aF0
aF0
aa(lp4751
F0
aF0
aF0
aF0
aF0
aa(lp4752
F0
aF0
aF0
aF0
aF0
aa(lp4753
F0
aF0
aF0
aF0
aF0
aa(lp4754
F0
aF0
aF0
aF0
aF0
aa(lp4755
F0
aF0
aF0
aF0
aF0
aa(lp4756
F0
aF0
aF0
aF0
aF0
aa(lp4757
F0
aF0
aF0
aF0
aF0
aa(lp4758
F0
aF0
aF0
aF0
aF0
aa(lp4759
F0
aF0
aF0
aF0
aF0
aa(lp4760
F0
aF0
aF0
aF0
aF0
aa(lp4761
F0
aF0
aF0
aF0
aF0
aa(lp4762
F0
aF0
aF0
aF0
aF0
aa(lp4763
F0
aF0
aF0
aF0
aF0
aa(lp4764
F0
aF0
aF0
aF0
aF0
aa(lp4765
F0
aF0
aF0
aF0
aF0
aa(lp4766
F0
aF0
aF0
aF0
aF0
aa(lp4767
F0
aF0
aF0
aF0
aF0
aa(lp4768
F0
aF0
aF0
aF0
aF0
aa(lp4769
F0
aF0
aF0
aF0
aF0
aa(lp4770
F0
aF0
aF0
aF0
aF0
aa(lp4771
F0
aF0
aF0
aF0
aF0
aa(lp4772
F0
aF0
aF0
aF0
aF0
aa(lp4773
F0
aF0
aF0
aF0
aF0
aa(lp4774
F0
aF0
aF0
aF0
aF0
aa(lp4775
F0
aF0
aF0
aF0
aF0
aa(lp4776
F0
aF0
aF0
aF0
aF0
aa(lp4777
F0
aF0
aF0
aF0
aF0
aa(lp4778
F0
aF0
aF0
aF0
aF0
aa(lp4779
F0
aF0
aF0
aF0
aF0
aa(lp4780
F0
aF0
aF0
aF0
aF0
aa(lp4781
F0
aF0
aF0
aF0
aF0
aa(lp4782
F0
aF0
aF0
aF0
aF0
aa(lp4783
F0
aF0
aF0
aF0
aF0
aa(lp4784
F0
aF0
aF0
aF0
aF0
aa(lp4785
F0
aF0
aF0
aF0
aF0
aa(lp4786
F0
aF0
aF0
aF0
aF0
aaa(lp4787
(lp4788
F0
aF0
aF0
aF0
aF0
aa(lp4789
F0
aF0
aF0
aF0
aF0
aa(lp4790
F0
aF0
aF0
aF0
aF0
aa(lp4791
F0
aF0
aF0
aF0
aF0
aa(lp4792
F0
aF0
aF0
aF0
aF0
aa(lp4793
F0
aF0
aF0
aF0
aF0
aa(lp4794
F0
aF0
aF0
aF0
aF0
aa(lp4795
F0
aF0
aF0
aF0
aF0
aa(lp4796
F0
aF0
aF0
aF0
aF0
aa(lp4797
F0
aF0
aF0
aF0
aF0
aa(lp4798
F0
aF0
aF0
aF0
aF0
aa(lp4799
F0
aF0
aF0
aF0
aF0
aa(lp4800
F0
aF0
aF0
aF0
aF0
aa(lp4801
F0
aF0
aF0
aF0
aF0
aa(lp4802
F0
aF0
aF0
aF0
aF0
aa(lp4803
F0
aF0
aF0
aF0
aF0
aa(lp4804
F0
aF0
aF0
aF0
aF0
aa(lp4805
F0
aF0
aF0
aF0
aF0
aa(lp4806
F0
aF0
aF0
aF0
aF0
aa(lp4807
F0
aF0
aF0
aF0
aF0
aa(lp4808
F0
aF0
aF0
aF0
aF0
aa(lp4809
F0
aF0
aF0
aF0
aF0
aa(lp4810
F0
aF0
aF0
aF0
aF0
aa(lp4811
F0
aF0
aF0
aF0
aF0
aa(lp4812
F0
aF0
aF0
aF0
aF0
aa(lp4813
F0
aF0
aF0
aF0
aF0
aa(lp4814
F0
aF0
aF0
aF0
aF0
aa(lp4815
F0
aF0
aF0
aF0
aF0
aa(lp4816
F0
aF0
aF0
aF0
aF0
aa(lp4817
F0
aF0
aF0
aF0
aF0
aa(lp4818
F0
aF0
aF0
aF0
aF0
aa(lp4819
F0
aF0
aF0
aF0
aF0
aa(lp4820
F0
aF0
aF0
aF0
aF0
aa(lp4821
F0
aF0
aF0
aF0
aF0
aa(lp4822
F0
aF0
aF0
aF0
aF0
aa(lp4823
F0
aF0
aF0
aF0
aF0
aa(lp4824
F0
aF0
aF0
aF0
aF0
aa(lp4825
F0
aF0
aF0
aF0
aF0
aa(lp4826
F0
aF0
aF0
aF0
aF0
aa(lp4827
F0
aF0
aF0
aF0
aF0
aa(lp4828
F0
aF0
aF0
aF0
aF0
aa(lp4829
F0
aF0
aF0
aF0
aF0
aa(lp4830
F0
aF0
aF0
aF0
aF0
aa(lp4831
F0
aF0
aF0
aF0
aF0
aa(lp4832
F0
aF0
aF0
aF0
aF0
aa(lp4833
F0
aF0
aF0
aF0
aF0
aa(lp4834
F0
aF0
aF0
aF0
aF0
aa(lp4835
F1
aF0
aF0
aF1
aF0
aa(lp4836
F0
aF0
aF0
aF0
aF0
aa(lp4837
F0
aF0
aF0
aF0
aF0
aa(lp4838
F0
aF0
aF0
aF0
aF0
aa(lp4839
F0
aF0
aF0
aF0
aF0
aa(lp4840
F0
aF0
aF0
aF0
aF0
aa(lp4841
F0
aF0
aF0
aF0
aF0
aa(lp4842
F0
aF0
aF0
aF0
aF0
aa(lp4843
F0
aF0
aF0
aF0
aF0
aa(lp4844
F0
aF0
aF0
aF0
aF0
aa(lp4845
F0
aF0
aF0
aF0
aF0
aa(lp4846
F0
aF0
aF0
aF0
aF0
aa(lp4847
F0
aF0
aF0
aF0
aF0
aa(lp4848
F0
aF0
aF0
aF0
aF0
aa(lp4849
F0
aF0
aF0
aF0
aF0
aa(lp4850
F0
aF0
aF0
aF0
aF0
aa(lp4851
F0
aF0
aF0
aF0
aF0
aa(lp4852
F0
aF0
aF0
aF0
aF0
aa(lp4853
F0
aF0
aF0
aF0
aF0
aa(lp4854
F0
aF0
aF0
aF0
aF0
aa(lp4855
F0
aF0
aF0
aF0
aF0
aa(lp4856
F0
aF0
aF0
aF0
aF0
aa(lp4857
F0
aF0
aF0
aF0
aF0
aa(lp4858
F0
aF0
aF0
aF0
aF0
aa(lp4859
F0
aF0
aF0
aF0
aF0
aa(lp4860
F0
aF0
aF0
aF0
aF0
aa(lp4861
F0
aF0
aF0
aF0
aF0
aa(lp4862
F0
aF0
aF0
aF0
aF0
aa(lp4863
F0
aF0
aF0
aF0
aF0
aa(lp4864
F0
aF0
aF0
aF0
aF0
aa(lp4865
F0
aF0
aF0
aF0
aF0
aa(lp4866
F0
aF0
aF0
aF0
aF0
aa(lp4867
F0
aF0
aF0
aF0
aF0
aa(lp4868
F0
aF0
aF0
aF0
aF0
aa(lp4869
F0
aF0
aF0
aF0
aF0
aa(lp4870
F0
aF0
aF0
aF0
aF0
aa(lp4871
F0
aF0
aF0
aF0
aF0
aa(lp4872
F0
aF0
aF0
aF0
aF0
aa(lp4873
F0
aF0
aF0
aF0
aF0
aaa(lp4874
(lp4875
F0
aF0
aF0
aF0
aF0
aa(lp4876
F0
aF0
aF0
aF0
aF0
aa(lp4877
F0
aF0
aF0
aF0
aF0
aa(lp4878
F0
aF0
aF0
aF0
aF0
aa(lp4879
F0
aF0
aF0
aF0
aF0
aa(lp4880
F0
aF0
aF0
aF0
aF0
aa(lp4881
F0
aF0
aF0
aF0
aF0
aa(lp4882
F0
aF0
aF0
aF0
aF0
aa(lp4883
F0
aF0
aF0
aF0
aF0
aa(lp4884
F0
aF0
aF0
aF0
aF0
aa(lp4885
F0
aF0
aF0
aF0
aF0
aa(lp4886
F0
aF0
aF0
aF0
aF0
aa(lp4887
F0
aF0
aF0
aF0
aF0
aa(lp4888
F0
aF0
aF0
aF0
aF0
aa(lp4889
F0
aF0
aF0
aF0
aF0
aa(lp4890
F0
aF0
aF0
aF0
aF0
aa(lp4891
F0
aF0
aF0
aF0
aF0
aa(lp4892
F0
aF0
aF0
aF0
aF0
aa(lp4893
F0
aF0
aF0
aF0
aF0
aa(lp4894
F0
aF0
aF0
aF0
aF0
aa(lp4895
F0
aF0
aF0
aF0
aF0
aa(lp4896
F0
aF0
aF0
aF0
aF0
aa(lp4897
F0
aF0
aF0
aF0
aF0
aa(lp4898
F0
aF0
aF0
aF0
aF0
aa(lp4899
F0
aF0
aF0
aF0
aF0
aa(lp4900
F0
aF0
aF0
aF0
aF0
aa(lp4901
F0
aF0
aF0
aF0
aF0
aa(lp4902
F0
aF0
aF0
aF0
aF0
aa(lp4903
F0
aF0
aF0
aF0
aF0
aa(lp4904
F0
aF0
aF0
aF0
aF0
aa(lp4905
F0
aF0
aF0
aF0
aF0
aa(lp4906
F0
aF0
aF0
aF0
aF0
aa(lp4907
F0
aF0
aF0
aF0
aF0
aa(lp4908
F0
aF0
aF0
aF0
aF0
aa(lp4909
F0
aF0
aF0
aF0
aF0
aa(lp4910
F0
aF0
aF0
aF0
aF0
aa(lp4911
F0
aF0
aF0
aF0
aF0
aa(lp4912
F0
aF0
aF0
aF0
aF0
aa(lp4913
F0
aF0
aF0
aF0
aF0
aa(lp4914
F0
aF0
aF0
aF0
aF0
aa(lp4915
F0
aF0
aF0
aF0
aF0
aa(lp4916
F0
aF0
aF0
aF0
aF0
aa(lp4917
F0
aF0
aF0
aF0
aF0
aa(lp4918
F0
aF0
aF0
aF0
aF0
aa(lp4919
F0
aF0
aF0
aF0
aF0
aa(lp4920
F0
aF0
aF0
aF0
aF0
aa(lp4921
F0
aF0
aF0
aF0
aF0
aa(lp4922
F0
aF0
aF0
aF0
aF0
aa(lp4923
F0
aF0
aF0
aF0
aF0
aa(lp4924
F1
aF0
aF0
aF1
aF0
aa(lp4925
F0
aF0
aF0
aF0
aF0
aa(lp4926
F0
aF0
aF0
aF0
aF0
aa(lp4927
F0
aF0
aF0
aF0
aF0
aa(lp4928
F0
aF0
aF0
aF0
aF0
aa(lp4929
F0
aF0
aF0
aF0
aF0
aa(lp4930
F0
aF0
aF0
aF0
aF0
aa(lp4931
F0
aF0
aF0
aF0
aF0
aa(lp4932
F0
aF0
aF0
aF0
aF0
aa(lp4933
F0
aF0
aF0
aF0
aF0
aa(lp4934
F0
aF0
aF0
aF0
aF0
aa(lp4935
F0
aF0
aF0
aF0
aF0
aa(lp4936
F0
aF0
aF0
aF0
aF0
aa(lp4937
F0
aF0
aF0
aF0
aF0
aa(lp4938
F0
aF0
aF0
aF0
aF0
aa(lp4939
F0
aF0
aF0
aF0
aF0
aa(lp4940
F0
aF0
aF0
aF0
aF0
aa(lp4941
F0
aF0
aF0
aF0
aF0
aa(lp4942
F0
aF0
aF0
aF0
aF0
aa(lp4943
F0
aF0
aF0
aF0
aF0
aa(lp4944
F0
aF0
aF0
aF0
aF0
aa(lp4945
F0
aF0
aF0
aF0
aF0
aa(lp4946
F0
aF0
aF0
aF0
aF0
aa(lp4947
F0
aF0
aF0
aF0
aF0
aa(lp4948
F0
aF0
aF0
aF0
aF0
aa(lp4949
F0
aF0
aF0
aF0
aF0
aa(lp4950
F0
aF0
aF0
aF0
aF0
aa(lp4951
F0
aF0
aF0
aF0
aF0
aa(lp4952
F0
aF0
aF0
aF0
aF0
aa(lp4953
F0
aF0
aF0
aF0
aF0
aa(lp4954
F0
aF0
aF0
aF0
aF0
aa(lp4955
F0
aF0
aF0
aF0
aF0
aa(lp4956
F0
aF0
aF0
aF0
aF0
aa(lp4957
F0
aF0
aF0
aF0
aF0
aa(lp4958
F0
aF0
aF0
aF0
aF0
aa(lp4959
F0
aF0
aF0
aF0
aF0
aa(lp4960
F0
aF0
aF0
aF0
aF0
aaa(lp4961
(lp4962
F0
aF0
aF0
aF0
aF0
aa(lp4963
F0
aF0
aF0
aF0
aF0
aa(lp4964
F0
aF0
aF0
aF0
aF0
aa(lp4965
F0
aF0
aF0
aF0
aF0
aa(lp4966
F0
aF0
aF0
aF0
aF0
aa(lp4967
F0
aF0
aF0
aF0
aF0
aa(lp4968
F0
aF0
aF0
aF0
aF0
aa(lp4969
F0
aF0
aF0
aF0
aF0
aa(lp4970
F0
aF0
aF0
aF0
aF0
aa(lp4971
F0
aF0
aF0
aF0
aF0
aa(lp4972
F0
aF0
aF0
aF0
aF0
aa(lp4973
F0
aF0
aF0
aF0
aF0
aa(lp4974
F0
aF0
aF0
aF0
aF0
aa(lp4975
F0
aF0
aF0
aF0
aF0
aa(lp4976
F0
aF0
aF0
aF0
aF0
aa(lp4977
F0
aF0
aF0
aF0
aF0
aa(lp4978
F0
aF0
aF0
aF0
aF0
aa(lp4979
F0
aF0
aF0
aF0
aF0
aa(lp4980
F0
aF0
aF0
aF0
aF0
aa(lp4981
F0
aF0
aF0
aF0
aF0
aa(lp4982
F1
aF0
aF0
aF1
aF0
aa(lp4983
F0
aF0
aF0
aF0
aF0
aa(lp4984
F0
aF0
aF0
aF0
aF0
aa(lp4985
F0
aF0
aF0
aF0
aF0
aa(lp4986
F0
aF0
aF0
aF0
aF0
aa(lp4987
F0
aF0
aF0
aF0
aF0
aa(lp4988
F0
aF0
aF0
aF0
aF0
aa(lp4989
F0
aF0
aF0
aF0
aF0
aa(lp4990
F0
aF0
aF0
aF0
aF0
aa(lp4991
F0
aF0
aF0
aF0
aF0
aa(lp4992
F0
aF0
aF0
aF0
aF0
aa(lp4993
F0
aF0
aF0
aF0
aF0
aa(lp4994
F0
aF0
aF0
aF0
aF0
aa(lp4995
F0
aF0
aF0
aF0
aF0
aa(lp4996
F0
aF0
aF0
aF0
aF0
aa(lp4997
F0
aF0
aF0
aF0
aF0
aa(lp4998
F0
aF0
aF0
aF0
aF0
aa(lp4999
F0
aF0
aF0
aF0
aF0
aa(lp5000
F0
aF0
aF0
aF0
aF0
aa(lp5001
F0
aF0
aF0
aF0
aF0
aa(lp5002
F0
aF0
aF0
aF0
aF0
aa(lp5003
F0
aF0
aF0
aF0
aF0
aa(lp5004
F0
aF0
aF0
aF0
aF0
aa(lp5005
F0
aF0
aF0
aF0
aF0
aa(lp5006
F0
aF0
aF0
aF0
aF0
aa(lp5007
F0
aF0
aF0
aF0
aF0
aa(lp5008
F0
aF0
aF0
aF0
aF0
aa(lp5009
F0
aF0
aF0
aF0
aF0
aa(lp5010
F0
aF0
aF0
aF0
aF0
aa(lp5011
F0
aF0
aF0
aF0
aF0
aa(lp5012
F0
aF0
aF0
aF0
aF0
aa(lp5013
F0
aF0
aF0
aF0
aF0
aa(lp5014
F0
aF0
aF0
aF0
aF0
aa(lp5015
F0
aF0
aF0
aF0
aF0
aa(lp5016
F0
aF0
aF0
aF0
aF0
aa(lp5017
F0
aF0
aF0
aF0
aF0
aa(lp5018
F0
aF0
aF0
aF0
aF0
aa(lp5019
F0
aF0
aF0
aF0
aF0
aa(lp5020
F0
aF0
aF0
aF0
aF0
aa(lp5021
F0
aF0
aF0
aF0
aF0
aa(lp5022
F0
aF0
aF0
aF0
aF0
aa(lp5023
F0
aF0
aF0
aF0
aF0
aa(lp5024
F0
aF0
aF0
aF0
aF0
aa(lp5025
F0
aF0
aF0
aF0
aF0
aa(lp5026
F0
aF0
aF0
aF0
aF0
aa(lp5027
F0
aF0
aF0
aF0
aF0
aa(lp5028
F0
aF0
aF0
aF0
aF0
aa(lp5029
F0
aF0
aF0
aF0
aF0
aa(lp5030
F0
aF0
aF0
aF0
aF0
aa(lp5031
F0
aF0
aF0
aF0
aF0
aa(lp5032
F0
aF0
aF0
aF0
aF0
aa(lp5033
F0
aF0
aF0
aF0
aF0
aa(lp5034
F0
aF0
aF0
aF0
aF0
aa(lp5035
F0
aF0
aF0
aF0
aF0
aa(lp5036
F0
aF0
aF0
aF0
aF0
aa(lp5037
F0
aF0
aF0
aF0
aF0
aa(lp5038
F0
aF0
aF0
aF0
aF0
aa(lp5039
F0
aF0
aF0
aF0
aF0
aa(lp5040
F0
aF0
aF0
aF0
aF0
aa(lp5041
F0
aF0
aF0
aF0
aF0
aa(lp5042
F0
aF0
aF0
aF0
aF0
aa(lp5043
F0
aF0
aF0
aF0
aF0
aa(lp5044
F0
aF0
aF0
aF0
aF0
aa(lp5045
F0
aF0
aF0
aF0
aF0
aa(lp5046
F0
aF0
aF0
aF0
aF0
aa(lp5047
F0
aF0
aF0
aF0
aF0
aaa(lp5048
(lp5049
F0
aF0
aF0
aF0
aF0
aa(lp5050
F0
aF0
aF0
aF0
aF0
aa(lp5051
F0
aF0
aF0
aF0
aF0
aa(lp5052
F0
aF0
aF0
aF0
aF0
aa(lp5053
F0
aF0
aF0
aF0
aF0
aa(lp5054
F0
aF0
aF0
aF0
aF0
aa(lp5055
F0
aF0
aF0
aF0
aF0
aa(lp5056
F0
aF0
aF0
aF0
aF0
aa(lp5057
F0
aF0
aF0
aF0
aF0
aa(lp5058
F0
aF0
aF0
aF0
aF0
aa(lp5059
F0
aF0
aF0
aF0
aF0
aa(lp5060
F0
aF0
aF0
aF0
aF0
aa(lp5061
F1
aF1
aF0
aF1
aF0
aa(lp5062
F0
aF0
aF0
aF0
aF0
aa(lp5063
F0
aF0
aF0
aF0
aF0
aa(lp5064
F0
aF0
aF0
aF0
aF0
aa(lp5065
F0
aF0
aF0
aF0
aF0
aa(lp5066
F0
aF0
aF0
aF0
aF0
aa(lp5067
F0
aF0
aF0
aF0
aF0
aa(lp5068
F0
aF0
aF0
aF0
aF0
aa(lp5069
F0
aF0
aF0
aF0
aF0
aa(lp5070
F0
aF0
aF0
aF0
aF0
aa(lp5071
F0
aF0
aF0
aF0
aF0
aa(lp5072
F0
aF0
aF0
aF0
aF0
aa(lp5073
F0
aF0
aF0
aF0
aF0
aa(lp5074
F0
aF0
aF0
aF0
aF0
aa(lp5075
F0
aF0
aF0
aF0
aF0
aa(lp5076
F0
aF0
aF0
aF0
aF0
aa(lp5077
F0
aF0
aF0
aF0
aF0
aa(lp5078
F0
aF0
aF0
aF0
aF0
aa(lp5079
F0
aF0
aF0
aF0
aF0
aa(lp5080
F0
aF0
aF0
aF0
aF0
aa(lp5081
F0
aF0
aF0
aF0
aF0
aa(lp5082
F0
aF0
aF0
aF0
aF0
aa(lp5083
F0
aF0
aF0
aF0
aF0
aa(lp5084
F0
aF0
aF0
aF0
aF0
aa(lp5085
F0
aF0
aF0
aF0
aF0
aa(lp5086
F0
aF0
aF0
aF0
aF0
aa(lp5087
F0
aF0
aF0
aF0
aF0
aa(lp5088
F0
aF0
aF0
aF0
aF0
aa(lp5089
F0
aF0
aF0
aF0
aF0
aa(lp5090
F0
aF0
aF0
aF0
aF0
aa(lp5091
F0
aF0
aF0
aF0
aF0
aa(lp5092
F0
aF0
aF0
aF0
aF0
aa(lp5093
F0
aF0
aF0
aF0
aF0
aa(lp5094
F0
aF0
aF0
aF0
aF0
aa(lp5095
F0
aF0
aF0
aF0
aF0
aa(lp5096
F0
aF0
aF0
aF0
aF0
aa(lp5097
F0
aF0
aF0
aF0
aF0
aa(lp5098
F0
aF0
aF0
aF0
aF0
aa(lp5099
F0
aF0
aF0
aF0
aF0
aa(lp5100
F0
aF0
aF0
aF0
aF0
aa(lp5101
F0
aF0
aF0
aF0
aF0
aa(lp5102
F0
aF0
aF0
aF0
aF0
aa(lp5103
F0
aF0
aF0
aF0
aF0
aa(lp5104
F0
aF0
aF0
aF0
aF0
aa(lp5105
F0
aF0
aF0
aF0
aF0
aa(lp5106
F0
aF0
aF0
aF0
aF0
aa(lp5107
F0
aF0
aF0
aF0
aF0
aa(lp5108
F0
aF0
aF0
aF0
aF0
aa(lp5109
F0
aF0
aF0
aF0
aF0
aa(lp5110
F0
aF0
aF0
aF0
aF0
aa(lp5111
F0
aF0
aF0
aF0
aF0
aa(lp5112
F0
aF0
aF0
aF0
aF0
aa(lp5113
F0
aF0
aF0
aF0
aF0
aa(lp5114
F0
aF0
aF0
aF0
aF0
aa(lp5115
F0
aF0
aF0
aF0
aF0
aa(lp5116
F0
aF0
aF0
aF0
aF0
aa(lp5117
F0
aF0
aF0
aF0
aF0
aa(lp5118
F0
aF0
aF0
aF0
aF0
aa(lp5119
F0
aF0
aF0
aF0
aF0
aa(lp5120
F0
aF0
aF0
aF0
aF0
aa(lp5121
F0
aF0
aF0
aF0
aF0
aa(lp5122
F0
aF0
aF0
aF0
aF0
aa(lp5123
F0
aF0
aF0
aF0
aF0
aa(lp5124
F0
aF0
aF0
aF0
aF0
aa(lp5125
F0
aF0
aF0
aF0
aF0
aa(lp5126
F0
aF0
aF0
aF0
aF0
aa(lp5127
F0
aF0
aF0
aF0
aF0
aa(lp5128
F0
aF0
aF0
aF0
aF0
aa(lp5129
F0
aF0
aF0
aF0
aF0
aa(lp5130
F0
aF0
aF0
aF0
aF0
aa(lp5131
F0
aF0
aF0
aF0
aF0
aa(lp5132
F0
aF0
aF0
aF0
aF0
aa(lp5133
F0
aF0
aF0
aF0
aF0
aa(lp5134
F0
aF0
aF0
aF0
aF0
aaa(lp5135
(lp5136
F0
aF0
aF0
aF0
aF0
aa(lp5137
F0
aF0
aF0
aF0
aF0
aa(lp5138
F0
aF0
aF0
aF0
aF0
aa(lp5139
F0
aF0
aF0
aF0
aF0
aa(lp5140
F0
aF0
aF0
aF0
aF0
aa(lp5141
F0
aF0
aF0
aF0
aF0
aa(lp5142
F0
aF0
aF0
aF0
aF0
aa(lp5143
F0
aF0
aF0
aF0
aF0
aa(lp5144
F0
aF0
aF0
aF0
aF0
aa(lp5145
F0
aF0
aF0
aF0
aF0
aa(lp5146
F0
aF0
aF0
aF0
aF0
aa(lp5147
F1
aF0
aF0
aF1
aF0
aa(lp5148
F0
aF0
aF0
aF0
aF0
aa(lp5149
F0
aF0
aF0
aF0
aF0
aa(lp5150
F0
aF0
aF0
aF0
aF0
aa(lp5151
F0
aF0
aF0
aF0
aF0
aa(lp5152
F0
aF0
aF0
aF0
aF0
aa(lp5153
F0
aF0
aF0
aF0
aF0
aa(lp5154
F0
aF0
aF0
aF0
aF0
aa(lp5155
F0
aF0
aF0
aF0
aF0
aa(lp5156
F0
aF0
aF0
aF0
aF0
aa(lp5157
F0
aF0
aF0
aF0
aF0
aa(lp5158
F0
aF0
aF0
aF0
aF0
aa(lp5159
F0
aF0
aF0
aF0
aF0
aa(lp5160
F0
aF0
aF0
aF0
aF0
aa(lp5161
F0
aF0
aF0
aF0
aF0
aa(lp5162
F0
aF0
aF0
aF0
aF0
aa(lp5163
F0
aF0
aF0
aF0
aF0
aa(lp5164
F0
aF0
aF0
aF0
aF0
aa(lp5165
F0
aF0
aF0
aF0
aF0
aa(lp5166
F0
aF0
aF0
aF0
aF0
aa(lp5167
F0
aF0
aF0
aF0
aF0
aa(lp5168
F0
aF0
aF0
aF0
aF0
aa(lp5169
F0
aF0
aF0
aF0
aF0
aa(lp5170
F0
aF0
aF0
aF0
aF0
aa(lp5171
F0
aF0
aF0
aF0
aF0
aa(lp5172
F0
aF0
aF0
aF0
aF0
aa(lp5173
F0
aF0
aF0
aF0
aF0
aa(lp5174
F0
aF0
aF0
aF0
aF0
aa(lp5175
F0
aF0
aF0
aF0
aF0
aa(lp5176
F0
aF0
aF0
aF0
aF0
aa(lp5177
F0
aF0
aF0
aF0
aF0
aa(lp5178
F0
aF0
aF0
aF0
aF0
aa(lp5179
F0
aF0
aF0
aF0
aF0
aa(lp5180
F0
aF0
aF0
aF0
aF0
aa(lp5181
F0
aF0
aF0
aF0
aF0
aa(lp5182
F0
aF0
aF0
aF0
aF0
aa(lp5183
F0
aF0
aF0
aF0
aF0
aa(lp5184
F0
aF0
aF0
aF0
aF0
aa(lp5185
F0
aF0
aF0
aF0
aF0
aa(lp5186
F0
aF0
aF0
aF0
aF0
aa(lp5187
F0
aF0
aF0
aF0
aF0
aa(lp5188
F0
aF0
aF0
aF0
aF0
aa(lp5189
F0
aF0
aF0
aF0
aF0
aa(lp5190
F0
aF0
aF0
aF0
aF0
aa(lp5191
F0
aF0
aF0
aF0
aF0
aa(lp5192
F0
aF0
aF0
aF0
aF0
aa(lp5193
F0
aF0
aF0
aF0
aF0
aa(lp5194
F0
aF0
aF0
aF0
aF0
aa(lp5195
F0
aF0
aF0
aF0
aF0
aa(lp5196
F0
aF0
aF0
aF0
aF0
aa(lp5197
F0
aF0
aF0
aF0
aF0
aa(lp5198
F0
aF0
aF0
aF0
aF0
aa(lp5199
F0
aF0
aF0
aF0
aF0
aa(lp5200
F0
aF0
aF0
aF0
aF0
aa(lp5201
F0
aF0
aF0
aF0
aF0
aa(lp5202
F0
aF0
aF0
aF0
aF0
aa(lp5203
F0
aF0
aF0
aF0
aF0
aa(lp5204
F0
aF0
aF0
aF0
aF0
aa(lp5205
F0
aF0
aF0
aF0
aF0
aa(lp5206
F0
aF0
aF0
aF0
aF0
aa(lp5207
F0
aF0
aF0
aF0
aF0
aa(lp5208
F0
aF0
aF0
aF0
aF0
aa(lp5209
F0
aF0
aF0
aF0
aF0
aa(lp5210
F0
aF0
aF0
aF0
aF0
aa(lp5211
F0
aF0
aF0
aF0
aF0
aa(lp5212
F0
aF0
aF0
aF0
aF0
aa(lp5213
F0
aF0
aF0
aF0
aF0
aa(lp5214
F0
aF0
aF0
aF0
aF0
aa(lp5215
F0
aF0
aF0
aF0
aF0
aa(lp5216
F0
aF0
aF0
aF0
aF0
aa(lp5217
F0
aF0
aF0
aF0
aF0
aa(lp5218
F0
aF0
aF0
aF0
aF0
aa(lp5219
F0
aF0
aF0
aF0
aF0
aa(lp5220
F0
aF0
aF0
aF0
aF0
aa(lp5221
F0
aF0
aF0
aF0
aF0
aaa(lp5222
(lp5223
F0
aF0
aF0
aF0
aF0
aa(lp5224
F0
aF0
aF0
aF0
aF0
aa(lp5225
F0
aF0
aF0
aF0
aF0
aa(lp5226
F0
aF0
aF0
aF0
aF0
aa(lp5227
F0
aF0
aF0
aF0
aF0
aa(lp5228
F0
aF0
aF0
aF0
aF0
aa(lp5229
F0
aF0
aF0
aF0
aF0
aa(lp5230
F0
aF0
aF0
aF0
aF0
aa(lp5231
F0
aF0
aF0
aF0
aF0
aa(lp5232
F0
aF0
aF0
aF0
aF0
aa(lp5233
F0
aF0
aF0
aF0
aF0
aa(lp5234
F0
aF0
aF0
aF0
aF0
aa(lp5235
F0
aF0
aF0
aF0
aF0
aa(lp5236
F0
aF0
aF0
aF0
aF0
aa(lp5237
F0
aF0
aF0
aF0
aF0
aa(lp5238
F0
aF0
aF0
aF0
aF0
aa(lp5239
F0
aF0
aF0
aF0
aF0
aa(lp5240
F0
aF0
aF0
aF0
aF0
aa(lp5241
F0
aF0
aF0
aF0
aF0
aa(lp5242
F1
aF0
aF0
aF1
aF0
aa(lp5243
F0
aF0
aF0
aF0
aF0
aa(lp5244
F0
aF0
aF0
aF0
aF0
aa(lp5245
F0
aF0
aF0
aF0
aF0
aa(lp5246
F0
aF0
aF0
aF0
aF0
aa(lp5247
F0
aF0
aF0
aF0
aF0
aa(lp5248
F0
aF0
aF0
aF0
aF0
aa(lp5249
F0
aF0
aF0
aF0
aF0
aa(lp5250
F0
aF0
aF0
aF0
aF0
aa(lp5251
F0
aF0
aF0
aF0
aF0
aa(lp5252
F0
aF0
aF0
aF0
aF0
aa(lp5253
F0
aF0
aF0
aF0
aF0
aa(lp5254
F0
aF0
aF0
aF0
aF0
aa(lp5255
F0
aF0
aF0
aF0
aF0
aa(lp5256
F0
aF0
aF0
aF0
aF0
aa(lp5257
F0
aF0
aF0
aF0
aF0
aa(lp5258
F0
aF0
aF0
aF0
aF0
aa(lp5259
F0
aF0
aF0
aF0
aF0
aa(lp5260
F0
aF0
aF0
aF0
aF0
aa(lp5261
F0
aF0
aF0
aF0
aF0
aa(lp5262
F0
aF0
aF0
aF0
aF0
aa(lp5263
F0
aF0
aF0
aF0
aF0
aa(lp5264
F0
aF0
aF0
aF0
aF0
aa(lp5265
F0
aF0
aF0
aF0
aF0
aa(lp5266
F0
aF0
aF0
aF0
aF0
aa(lp5267
F0
aF0
aF0
aF0
aF0
aa(lp5268
F0
aF0
aF0
aF0
aF0
aa(lp5269
F0
aF0
aF0
aF0
aF0
aa(lp5270
F0
aF0
aF0
aF0
aF0
aa(lp5271
F0
aF0
aF0
aF0
aF0
aa(lp5272
F0
aF0
aF0
aF0
aF0
aa(lp5273
F0
aF0
aF0
aF0
aF0
aa(lp5274
F0
aF0
aF0
aF0
aF0
aa(lp5275
F0
aF0
aF0
aF0
aF0
aa(lp5276
F0
aF0
aF0
aF0
aF0
aa(lp5277
F0
aF0
aF0
aF0
aF0
aa(lp5278
F0
aF0
aF0
aF0
aF0
aa(lp5279
F0
aF0
aF0
aF0
aF0
aa(lp5280
F0
aF0
aF0
aF0
aF0
aa(lp5281
F0
aF0
aF0
aF0
aF0
aa(lp5282
F0
aF0
aF0
aF0
aF0
aa(lp5283
F0
aF0
aF0
aF0
aF0
aa(lp5284
F0
aF0
aF0
aF0
aF0
aa(lp5285
F0
aF0
aF0
aF0
aF0
aa(lp5286
F0
aF0
aF0
aF0
aF0
aa(lp5287
F0
aF0
aF0
aF0
aF0
aa(lp5288
F0
aF0
aF0
aF0
aF0
aa(lp5289
F0
aF0
aF0
aF0
aF0
aa(lp5290
F0
aF0
aF0
aF0
aF0
aa(lp5291
F0
aF0
aF0
aF0
aF0
aa(lp5292
F0
aF0
aF0
aF0
aF0
aa(lp5293
F0
aF0
aF0
aF0
aF0
aa(lp5294
F0
aF0
aF0
aF0
aF0
aa(lp5295
F0
aF0
aF0
aF0
aF0
aa(lp5296
F0
aF0
aF0
aF0
aF0
aa(lp5297
F0
aF0
aF0
aF0
aF0
aa(lp5298
F0
aF0
aF0
aF0
aF0
aa(lp5299
F0
aF0
aF0
aF0
aF0
aa(lp5300
F0
aF0
aF0
aF0
aF0
aa(lp5301
F0
aF0
aF0
aF0
aF0
aa(lp5302
F0
aF0
aF0
aF0
aF0
aa(lp5303
F0
aF0
aF0
aF0
aF0
aa(lp5304
F0
aF0
aF0
aF0
aF0
aa(lp5305
F0
aF0
aF0
aF0
aF0
aa(lp5306
F0
aF0
aF0
aF0
aF0
aa(lp5307
F0
aF0
aF0
aF0
aF0
aa(lp5308
F0
aF0
aF0
aF0
aF0
aaa(lp5309
(lp5310
F0
aF0
aF0
aF0
aF0
aa(lp5311
F0
aF0
aF0
aF0
aF0
aa(lp5312
F0
aF0
aF0
aF0
aF0
aa(lp5313
F0
aF0
aF0
aF0
aF0
aa(lp5314
F0
aF0
aF0
aF0
aF0
aa(lp5315
F0
aF0
aF0
aF0
aF0
aa(lp5316
F0
aF0
aF0
aF0
aF0
aa(lp5317
F0
aF0
aF0
aF0
aF0
aa(lp5318
F0
aF0
aF0
aF0
aF0
aa(lp5319
F0
aF0
aF0
aF0
aF0
aa(lp5320
F0
aF0
aF0
aF0
aF0
aa(lp5321
F0
aF0
aF0
aF0
aF0
aa(lp5322
F0
aF0
aF0
aF0
aF0
aa(lp5323
F0
aF0
aF0
aF0
aF0
aa(lp5324
F0
aF0
aF0
aF0
aF0
aa(lp5325
F0
aF0
aF0
aF0
aF0
aa(lp5326
F0
aF0
aF0
aF0
aF0
aa(lp5327
F0
aF0
aF0
aF0
aF0
aa(lp5328
F0
aF0
aF0
aF0
aF0
aa(lp5329
F0
aF0
aF0
aF0
aF0
aa(lp5330
F0
aF0
aF0
aF0
aF0
aa(lp5331
F0
aF0
aF0
aF0
aF0
aa(lp5332
F1
aF1
aF0
aF1
aF0
aa(lp5333
F0
aF0
aF0
aF0
aF0
aa(lp5334
F0
aF0
aF0
aF0
aF0
aa(lp5335
F0
aF0
aF0
aF0
aF0
aa(lp5336
F0
aF0
aF0
aF0
aF0
aa(lp5337
F0
aF0
aF0
aF0
aF0
aa(lp5338
F0
aF0
aF0
aF0
aF0
aa(lp5339
F0
aF0
aF0
aF0
aF0
aa(lp5340
F0
aF0
aF0
aF0
aF0
aa(lp5341
F0
aF0
aF0
aF0
aF0
aa(lp5342
F0
aF0
aF0
aF0
aF0
aa(lp5343
F0
aF0
aF0
aF0
aF0
aa(lp5344
F0
aF0
aF0
aF0
aF0
aa(lp5345
F0
aF0
aF0
aF0
aF0
aa(lp5346
F0
aF0
aF0
aF0
aF0
aa(lp5347
F0
aF0
aF0
aF0
aF0
aa(lp5348
F0
aF0
aF0
aF0
aF0
aa(lp5349
F0
aF0
aF0
aF0
aF0
aa(lp5350
F0
aF0
aF0
aF0
aF0
aa(lp5351
F0
aF0
aF0
aF0
aF0
aa(lp5352
F0
aF0
aF0
aF0
aF0
aa(lp5353
F0
aF0
aF0
aF0
aF0
aa(lp5354
F0
aF0
aF0
aF0
aF0
aa(lp5355
F0
aF0
aF0
aF0
aF0
aa(lp5356
F0
aF0
aF0
aF0
aF0
aa(lp5357
F0
aF0
aF0
aF0
aF0
aa(lp5358
F0
aF0
aF0
aF0
aF0
aa(lp5359
F0
aF0
aF0
aF0
aF0
aa(lp5360
F0
aF0
aF0
aF0
aF0
aa(lp5361
F0
aF0
aF0
aF0
aF0
aa(lp5362
F0
aF0
aF0
aF0
aF0
aa(lp5363
F0
aF0
aF0
aF0
aF0
aa(lp5364
F0
aF0
aF0
aF0
aF0
aa(lp5365
F0
aF0
aF0
aF0
aF0
aa(lp5366
F0
aF0
aF0
aF0
aF0
aa(lp5367
F0
aF0
aF0
aF0
aF0
aa(lp5368
F0
aF0
aF0
aF0
aF0
aa(lp5369
F0
aF0
aF0
aF0
aF0
aa(lp5370
F0
aF0
aF0
aF0
aF0
aa(lp5371
F0
aF0
aF0
aF0
aF0
aa(lp5372
F0
aF0
aF0
aF0
aF0
aa(lp5373
F0
aF0
aF0
aF0
aF0
aa(lp5374
F0
aF0
aF0
aF0
aF0
aa(lp5375
F0
aF0
aF0
aF0
aF0
aa(lp5376
F0
aF0
aF0
aF0
aF0
aa(lp5377
F0
aF0
aF0
aF0
aF0
aa(lp5378
F0
aF0
aF0
aF0
aF0
aa(lp5379
F0
aF0
aF0
aF0
aF0
aa(lp5380
F0
aF0
aF0
aF0
aF0
aa(lp5381
F0
aF0
aF0
aF0
aF0
aa(lp5382
F0
aF0
aF0
aF0
aF0
aa(lp5383
F0
aF0
aF0
aF0
aF0
aa(lp5384
F0
aF0
aF0
aF0
aF0
aa(lp5385
F0
aF0
aF0
aF0
aF0
aa(lp5386
F0
aF0
aF0
aF0
aF0
aa(lp5387
F0
aF0
aF0
aF0
aF0
aa(lp5388
F0
aF0
aF0
aF0
aF0
aa(lp5389
F0
aF0
aF0
aF0
aF0
aa(lp5390
F0
aF0
aF0
aF0
aF0
aa(lp5391
F0
aF0
aF0
aF0
aF0
aa(lp5392
F0
aF0
aF0
aF0
aF0
aa(lp5393
F0
aF0
aF0
aF0
aF0
aa(lp5394
F0
aF0
aF0
aF0
aF0
aa(lp5395
F0
aF0
aF0
aF0
aF0
aaa(lp5396
(lp5397
F0
aF0
aF0
aF0
aF0
aa(lp5398
F0
aF0
aF0
aF0
aF0
aa(lp5399
F0
aF0
aF0
aF0
aF0
aa(lp5400
F0
aF0
aF0
aF0
aF0
aa(lp5401
F0
aF0
aF0
aF0
aF0
aa(lp5402
F0
aF0
aF0
aF0
aF0
aa(lp5403
F0
aF0
aF0
aF0
aF0
aa(lp5404
F0
aF0
aF0
aF0
aF0
aa(lp5405
F0
aF0
aF0
aF0
aF0
aa(lp5406
F0
aF0
aF0
aF0
aF0
aa(lp5407
F0
aF0
aF0
aF0
aF0
aa(lp5408
F0
aF0
aF0
aF0
aF0
aa(lp5409
F0
aF0
aF0
aF0
aF0
aa(lp5410
F0
aF0
aF0
aF0
aF0
aa(lp5411
F0
aF0
aF0
aF0
aF0
aa(lp5412
F0
aF0
aF0
aF0
aF0
aa(lp5413
F0
aF0
aF0
aF0
aF0
aa(lp5414
F0
aF0
aF0
aF0
aF0
aa(lp5415
F0
aF0
aF0
aF0
aF0
aa(lp5416
F0
aF0
aF0
aF0
aF0
aa(lp5417
F0
aF0
aF0
aF0
aF0
aa(lp5418
F0
aF0
aF0
aF0
aF0
aa(lp5419
F0
aF0
aF0
aF0
aF0
aa(lp5420
F0
aF0
aF0
aF0
aF0
aa(lp5421
F0
aF0
aF0
aF0
aF0
aa(lp5422
F0
aF0
aF0
aF0
aF0
aa(lp5423
F0
aF0
aF0
aF0
aF0
aa(lp5424
F0
aF0
aF0
aF0
aF0
aa(lp5425
F0
aF0
aF0
aF0
aF0
aa(lp5426
F0
aF0
aF0
aF0
aF0
aa(lp5427
F0
aF0
aF0
aF0
aF0
aa(lp5428
F0
aF0
aF0
aF0
aF0
aa(lp5429
F0
aF0
aF0
aF0
aF0
aa(lp5430
F0
aF0
aF0
aF0
aF0
aa(lp5431
F0
aF0
aF0
aF0
aF0
aa(lp5432
F1
aF1
aF0
aF1
aF0
aa(lp5433
F0
aF0
aF0
aF0
aF0
aa(lp5434
F0
aF0
aF0
aF0
aF0
aa(lp5435
F0
aF0
aF0
aF0
aF0
aa(lp5436
F0
aF0
aF0
aF0
aF0
aa(lp5437
F0
aF0
aF0
aF0
aF0
aa(lp5438
F0
aF0
aF0
aF0
aF0
aa(lp5439
F0
aF0
aF0
aF0
aF0
aa(lp5440
F0
aF0
aF0
aF0
aF0
aa(lp5441
F0
aF0
aF0
aF0
aF0
aa(lp5442
F0
aF0
aF0
aF0
aF0
aa(lp5443
F0
aF0
aF0
aF0
aF0
aa(lp5444
F0
aF0
aF0
aF0
aF0
aa(lp5445
F0
aF0
aF0
aF0
aF0
aa(lp5446
F0
aF0
aF0
aF0
aF0
aa(lp5447
F0
aF0
aF0
aF0
aF0
aa(lp5448
F0
aF0
aF0
aF0
aF0
aa(lp5449
F0
aF0
aF0
aF0
aF0
aa(lp5450
F0
aF0
aF0
aF0
aF0
aa(lp5451
F0
aF0
aF0
aF0
aF0
aa(lp5452
F0
aF0
aF0
aF0
aF0
aa(lp5453
F0
aF0
aF0
aF0
aF0
aa(lp5454
F0
aF0
aF0
aF0
aF0
aa(lp5455
F0
aF0
aF0
aF0
aF0
aa(lp5456
F0
aF0
aF0
aF0
aF0
aa(lp5457
F0
aF0
aF0
aF0
aF0
aa(lp5458
F0
aF0
aF0
aF0
aF0
aa(lp5459
F0
aF0
aF0
aF0
aF0
aa(lp5460
F0
aF0
aF0
aF0
aF0
aa(lp5461
F0
aF0
aF0
aF0
aF0
aa(lp5462
F0
aF0
aF0
aF0
aF0
aa(lp5463
F0
aF0
aF0
aF0
aF0
aa(lp5464
F0
aF0
aF0
aF0
aF0
aa(lp5465
F0
aF0
aF0
aF0
aF0
aa(lp5466
F0
aF0
aF0
aF0
aF0
aa(lp5467
F0
aF0
aF0
aF0
aF0
aa(lp5468
F0
aF0
aF0
aF0
aF0
aa(lp5469
F0
aF0
aF0
aF0
aF0
aa(lp5470
F0
aF0
aF0
aF0
aF0
aa(lp5471
F0
aF0
aF0
aF0
aF0
aa(lp5472
F0
aF0
aF0
aF0
aF0
aa(lp5473
F0
aF0
aF0
aF0
aF0
aa(lp5474
F0
aF0
aF0
aF0
aF0
aa(lp5475
F0
aF0
aF0
aF0
aF0
aa(lp5476
F0
aF0
aF0
aF0
aF0
aa(lp5477
F0
aF0
aF0
aF0
aF0
aa(lp5478
F0
aF0
aF0
aF0
aF0
aa(lp5479
F0
aF0
aF0
aF0
aF0
aa(lp5480
F0
aF0
aF0
aF0
aF0
aa(lp5481
F0
aF0
aF0
aF0
aF0
aa(lp5482
F0
aF0
aF0
aF0
aF0
aaa(lp5483
(lp5484
F0
aF0
aF0
aF0
aF0
aa(lp5485
F0
aF0
aF0
aF0
aF0
aa(lp5486
F0
aF0
aF0
aF0
aF0
aa(lp5487
F0
aF0
aF0
aF0
aF0
aa(lp5488
F0
aF0
aF0
aF0
aF0
aa(lp5489
F0
aF0
aF0
aF0
aF0
aa(lp5490
F0
aF0
aF0
aF0
aF0
aa(lp5491
F0
aF0
aF0
aF0
aF0
aa(lp5492
F0
aF0
aF0
aF0
aF0
aa(lp5493
F0
aF0
aF0
aF0
aF0
aa(lp5494
F0
aF0
aF0
aF0
aF0
aa(lp5495
F0
aF0
aF0
aF0
aF0
aa(lp5496
F0
aF0
aF0
aF0
aF0
aa(lp5497
F0
aF0
aF0
aF0
aF0
aa(lp5498
F0
aF0
aF0
aF0
aF0
aa(lp5499
F0
aF0
aF0
aF0
aF0
aa(lp5500
F0
aF0
aF0
aF0
aF0
aa(lp5501
F0
aF0
aF0
aF0
aF0
aa(lp5502
F0
aF0
aF0
aF0
aF0
aa(lp5503
F0
aF0
aF0
aF0
aF0
aa(lp5504
F0
aF0
aF0
aF0
aF0
aa(lp5505
F0
aF0
aF0
aF0
aF0
aa(lp5506
F0
aF0
aF0
aF0
aF0
aa(lp5507
F0
aF0
aF0
aF0
aF0
aa(lp5508
F0
aF0
aF0
aF0
aF0
aa(lp5509
F0
aF0
aF0
aF0
aF0
aa(lp5510
F0
aF0
aF0
aF0
aF0
aa(lp5511
F1
aF0
aF0
aF1
aF0
aa(lp5512
F0
aF0
aF0
aF0
aF0
aa(lp5513
F0
aF0
aF0
aF0
aF0
aa(lp5514
F0
aF0
aF0
aF0
aF0
aa(lp5515
F0
aF0
aF0
aF0
aF0
aa(lp5516
F0
aF0
aF0
aF0
aF0
aa(lp5517
F0
aF0
aF0
aF0
aF0
aa(lp5518
F0
aF0
aF0
aF0
aF0
aa(lp5519
F0
aF0
aF0
aF0
aF0
aa(lp5520
F0
aF0
aF0
aF0
aF0
aa(lp5521
F0
aF0
aF0
aF0
aF0
aa(lp5522
F0
aF0
aF0
aF0
aF0
aa(lp5523
F0
aF0
aF0
aF0
aF0
aa(lp5524
F0
aF0
aF0
aF0
aF0
aa(lp5525
F0
aF0
aF0
aF0
aF0
aa(lp5526
F0
aF0
aF0
aF0
aF0
aa(lp5527
F0
aF0
aF0
aF0
aF0
aa(lp5528
F0
aF0
aF0
aF0
aF0
aa(lp5529
F0
aF0
aF0
aF0
aF0
aa(lp5530
F0
aF0
aF0
aF0
aF0
aa(lp5531
F0
aF0
aF0
aF0
aF0
aa(lp5532
F0
aF0
aF0
aF0
aF0
aa(lp5533
F0
aF0
aF0
aF0
aF0
aa(lp5534
F0
aF0
aF0
aF0
aF0
aa(lp5535
F0
aF0
aF0
aF0
aF0
aa(lp5536
F0
aF0
aF0
aF0
aF0
aa(lp5537
F0
aF0
aF0
aF0
aF0
aa(lp5538
F0
aF0
aF0
aF0
aF0
aa(lp5539
F0
aF0
aF0
aF0
aF0
aa(lp5540
F0
aF0
aF0
aF0
aF0
aa(lp5541
F0
aF0
aF0
aF0
aF0
aa(lp5542
F0
aF0
aF0
aF0
aF0
aa(lp5543
F0
aF0
aF0
aF0
aF0
aa(lp5544
F0
aF0
aF0
aF0
aF0
aa(lp5545
F0
aF0
aF0
aF0
aF0
aa(lp5546
F0
aF0
aF0
aF0
aF0
aa(lp5547
F0
aF0
aF0
aF0
aF0
aa(lp5548
F0
aF0
aF0
aF0
aF0
aa(lp5549
F0
aF0
aF0
aF0
aF0
aa(lp5550
F0
aF0
aF0
aF0
aF0
aa(lp5551
F0
aF0
aF0
aF0
aF0
aa(lp5552
F0
aF0
aF0
aF0
aF0
aa(lp5553
F0
aF0
aF0
aF0
aF0
aa(lp5554
F0
aF0
aF0
aF0
aF0
aa(lp5555
F0
aF0
aF0
aF0
aF0
aa(lp5556
F0
aF0
aF0
aF0
aF0
aa(lp5557
F0
aF0
aF0
aF0
aF0
aa(lp5558
F0
aF0
aF0
aF0
aF0
aa(lp5559
F0
aF0
aF0
aF0
aF0
aa(lp5560
F0
aF0
aF0
aF0
aF0
aa(lp5561
F0
aF0
aF0
aF0
aF0
aa(lp5562
F0
aF0
aF0
aF0
aF0
aa(lp5563
F0
aF0
aF0
aF0
aF0
aa(lp5564
F0
aF0
aF0
aF0
aF0
aa(lp5565
F0
aF0
aF0
aF0
aF0
aa(lp5566
F0
aF0
aF0
aF0
aF0
aa(lp5567
F0
aF0
aF0
aF0
aF0
aa(lp5568
F0
aF0
aF0
aF0
aF0
aa(lp5569
F0
aF0
aF0
aF0
aF0
aaa(lp5570
(lp5571
F0
aF0
aF0
aF0
aF0
aa(lp5572
F0
aF0
aF0
aF0
aF0
aa(lp5573
F0
aF0
aF0
aF0
aF0
aa(lp5574
F0
aF0
aF0
aF0
aF0
aa(lp5575
F0
aF0
aF0
aF0
aF0
aa(lp5576
F0
aF0
aF0
aF0
aF0
aa(lp5577
F0
aF0
aF0
aF0
aF0
aa(lp5578
F0
aF0
aF0
aF0
aF0
aa(lp5579
F0
aF0
aF0
aF0
aF0
aa(lp5580
F0
aF0
aF0
aF0
aF0
aa(lp5581
F0
aF0
aF0
aF0
aF0
aa(lp5582
F0
aF0
aF0
aF0
aF0
aa(lp5583
F0
aF0
aF0
aF0
aF0
aa(lp5584
F0
aF0
aF0
aF0
aF0
aa(lp5585
F0
aF0
aF0
aF0
aF0
aa(lp5586
F0
aF0
aF0
aF0
aF0
aa(lp5587
F0
aF0
aF0
aF0
aF0
aa(lp5588
F0
aF0
aF0
aF0
aF0
aa(lp5589
F0
aF0
aF0
aF0
aF0
aa(lp5590
F1
aF0
aF0
aF1
aF0
aa(lp5591
F0
aF0
aF0
aF0
aF0
aa(lp5592
F0
aF0
aF0
aF0
aF0
aa(lp5593
F0
aF0
aF0
aF0
aF0
aa(lp5594
F0
aF0
aF0
aF0
aF0
aa(lp5595
F0
aF0
aF0
aF0
aF0
aa(lp5596
F0
aF0
aF0
aF0
aF0
aa(lp5597
F0
aF0
aF0
aF0
aF0
aa(lp5598
F0
aF0
aF0
aF0
aF0
aa(lp5599
F0
aF0
aF0
aF0
aF0
aa(lp5600
F0
aF0
aF0
aF0
aF0
aa(lp5601
F0
aF0
aF0
aF0
aF0
aa(lp5602
F0
aF0
aF0
aF0
aF0
aa(lp5603
F0
aF0
aF0
aF0
aF0
aa(lp5604
F0
aF0
aF0
aF0
aF0
aa(lp5605
F0
aF0
aF0
aF0
aF0
aa(lp5606
F0
aF0
aF0
aF0
aF0
aa(lp5607
F0
aF0
aF0
aF0
aF0
aa(lp5608
F0
aF0
aF0
aF0
aF0
aa(lp5609
F0
aF0
aF0
aF0
aF0
aa(lp5610
F0
aF0
aF0
aF0
aF0
aa(lp5611
F0
aF0
aF0
aF0
aF0
aa(lp5612
F0
aF0
aF0
aF0
aF0
aa(lp5613
F0
aF0
aF0
aF0
aF0
aa(lp5614
F0
aF0
aF0
aF0
aF0
aa(lp5615
F0
aF0
aF0
aF0
aF0
aa(lp5616
F0
aF0
aF0
aF0
aF0
aa(lp5617
F0
aF0
aF0
aF0
aF0
aa(lp5618
F0
aF0
aF0
aF0
aF0
aa(lp5619
F0
aF0
aF0
aF0
aF0
aa(lp5620
F0
aF0
aF0
aF0
aF0
aa(lp5621
F0
aF0
aF0
aF0
aF0
aa(lp5622
F0
aF0
aF0
aF0
aF0
aa(lp5623
F0
aF0
aF0
aF0
aF0
aa(lp5624
F0
aF0
aF0
aF0
aF0
aa(lp5625
F0
aF0
aF0
aF0
aF0
aa(lp5626
F0
aF0
aF0
aF0
aF0
aa(lp5627
F0
aF0
aF0
aF0
aF0
aa(lp5628
F0
aF0
aF0
aF0
aF0
aa(lp5629
F0
aF0
aF0
aF0
aF0
aa(lp5630
F0
aF0
aF0
aF0
aF0
aa(lp5631
F0
aF0
aF0
aF0
aF0
aa(lp5632
F0
aF0
aF0
aF0
aF0
aa(lp5633
F0
aF0
aF0
aF0
aF0
aa(lp5634
F0
aF0
aF0
aF0
aF0
aa(lp5635
F0
aF0
aF0
aF0
aF0
aa(lp5636
F0
aF0
aF0
aF0
aF0
aa(lp5637
F0
aF0
aF0
aF0
aF0
aa(lp5638
F0
aF0
aF0
aF0
aF0
aa(lp5639
F0
aF0
aF0
aF0
aF0
aa(lp5640
F0
aF0
aF0
aF0
aF0
aa(lp5641
F0
aF0
aF0
aF0
aF0
aa(lp5642
F0
aF0
aF0
aF0
aF0
aa(lp5643
F0
aF0
aF0
aF0
aF0
aa(lp5644
F0
aF0
aF0
aF0
aF0
aa(lp5645
F0
aF0
aF0
aF0
aF0
aa(lp5646
F0
aF0
aF0
aF0
aF0
aa(lp5647
F0
aF0
aF0
aF0
aF0
aa(lp5648
F0
aF0
aF0
aF0
aF0
aa(lp5649
F0
aF0
aF0
aF0
aF0
aa(lp5650
F0
aF0
aF0
aF0
aF0
aa(lp5651
F0
aF0
aF0
aF0
aF0
aa(lp5652
F0
aF0
aF0
aF0
aF0
aa(lp5653
F0
aF0
aF0
aF0
aF0
aa(lp5654
F0
aF0
aF0
aF0
aF0
aa(lp5655
F0
aF0
aF0
aF0
aF0
aa(lp5656
F0
aF0
aF0
aF0
aF0
aaa(lp5657
(lp5658
F0
aF0
aF0
aF0
aF0
aa(lp5659
F0
aF0
aF0
aF0
aF0
aa(lp5660
F0
aF0
aF0
aF0
aF0
aa(lp5661
F0
aF0
aF0
aF0
aF0
aa(lp5662
F0
aF0
aF0
aF0
aF0
aa(lp5663
F0
aF0
aF0
aF0
aF0
aa(lp5664
F0
aF0
aF0
aF0
aF0
aa(lp5665
F0
aF0
aF0
aF0
aF0
aa(lp5666
F0
aF0
aF0
aF0
aF0
aa(lp5667
F0
aF0
aF0
aF0
aF0
aa(lp5668
F0
aF0
aF0
aF0
aF0
aa(lp5669
F0
aF0
aF0
aF0
aF0
aa(lp5670
F0
aF0
aF0
aF0
aF0
aa(lp5671
F0
aF0
aF0
aF0
aF0
aa(lp5672
F0
aF0
aF0
aF0
aF0
aa(lp5673
F0
aF0
aF0
aF0
aF0
aa(lp5674
F0
aF0
aF0
aF0
aF0
aa(lp5675
F0
aF0
aF0
aF0
aF0
aa(lp5676
F0
aF0
aF0
aF0
aF0
aa(lp5677
F0
aF0
aF0
aF0
aF0
aa(lp5678
F0
aF0
aF0
aF0
aF0
aa(lp5679
F0
aF0
aF0
aF0
aF0
aa(lp5680
F0
aF0
aF0
aF0
aF0
aa(lp5681
F0
aF0
aF0
aF0
aF0
aa(lp5682
F0
aF0
aF0
aF0
aF0
aa(lp5683
F0
aF0
aF0
aF0
aF0
aa(lp5684
F0
aF0
aF0
aF0
aF0
aa(lp5685
F0
aF0
aF0
aF0
aF0
aa(lp5686
F0
aF0
aF0
aF0
aF0
aa(lp5687
F0
aF0
aF0
aF0
aF0
aa(lp5688
F0
aF0
aF0
aF0
aF0
aa(lp5689
F0
aF0
aF0
aF0
aF0
aa(lp5690
F0
aF0
aF0
aF0
aF0
aa(lp5691
F0
aF0
aF0
aF0
aF0
aa(lp5692
F1
aF0
aF0
aF1
aF0
aa(lp5693
F0
aF0
aF0
aF0
aF0
aa(lp5694
F0
aF0
aF0
aF0
aF0
aa(lp5695
F0
aF0
aF0
aF0
aF0
aa(lp5696
F0
aF0
aF0
aF0
aF0
aa(lp5697
F0
aF0
aF0
aF0
aF0
aa(lp5698
F0
aF0
aF0
aF0
aF0
aa(lp5699
F0
aF0
aF0
aF0
aF0
aa(lp5700
F0
aF0
aF0
aF0
aF0
aa(lp5701
F0
aF0
aF0
aF0
aF0
aa(lp5702
F1
aF0
aF0
aF1
aF0
aa(lp5703
F0
aF0
aF0
aF0
aF0
aa(lp5704
F0
aF0
aF0
aF0
aF0
aa(lp5705
F0
aF0
aF0
aF0
aF0
aa(lp5706
F0
aF0
aF0
aF0
aF0
aa(lp5707
F0
aF0
aF0
aF0
aF0
aa(lp5708
F0
aF0
aF0
aF0
aF0
aa(lp5709
F0
aF0
aF0
aF0
aF0
aa(lp5710
F0
aF0
aF0
aF0
aF0
aa(lp5711
F0
aF0
aF0
aF0
aF0
aa(lp5712
F0
aF0
aF0
aF0
aF0
aa(lp5713
F0
aF0
aF0
aF0
aF0
aa(lp5714
F0
aF0
aF0
aF0
aF0
aa(lp5715
F0
aF0
aF0
aF0
aF0
aa(lp5716
F0
aF0
aF0
aF0
aF0
aa(lp5717
F0
aF0
aF0
aF0
aF0
aa(lp5718
F0
aF0
aF0
aF0
aF0
aa(lp5719
F0
aF0
aF0
aF0
aF0
aa(lp5720
F0
aF0
aF0
aF0
aF0
aa(lp5721
F0
aF0
aF0
aF0
aF0
aa(lp5722
F0
aF0
aF0
aF0
aF0
aa(lp5723
F0
aF0
aF0
aF0
aF0
aa(lp5724
F0
aF0
aF0
aF0
aF0
aa(lp5725
F0
aF0
aF0
aF0
aF0
aa(lp5726
F0
aF0
aF0
aF0
aF0
aa(lp5727
F0
aF0
aF0
aF0
aF0
aa(lp5728
F0
aF0
aF0
aF0
aF0
aa(lp5729
F0
aF0
aF0
aF0
aF0
aa(lp5730
F0
aF0
aF0
aF0
aF0
aa(lp5731
F0
aF0
aF0
aF0
aF0
aa(lp5732
F0
aF0
aF0
aF0
aF0
aa(lp5733
F0
aF0
aF0
aF0
aF0
aa(lp5734
F0
aF0
aF0
aF0
aF0
aa(lp5735
F0
aF0
aF0
aF0
aF0
aa(lp5736
F0
aF0
aF0
aF0
aF0
aa(lp5737
F0
aF0
aF0
aF0
aF0
aa(lp5738
F0
aF0
aF0
aF0
aF0
aa(lp5739
F0
aF0
aF0
aF0
aF0
aa(lp5740
F0
aF0
aF0
aF0
aF0
aa(lp5741
F0
aF0
aF0
aF0
aF0
aa(lp5742
F0
aF0
aF0
aF0
aF0
aa(lp5743
F0
aF0
aF0
aF0
aF0
aaa(lp5744
(lp5745
F0
aF0
aF0
aF0
aF0
aa(lp5746
F0
aF0
aF0
aF0
aF0
aa(lp5747
F0
aF0
aF0
aF0
aF0
aa(lp5748
F0
aF0
aF0
aF0
aF0
aa(lp5749
F0
aF0
aF0
aF0
aF0
aa(lp5750
F0
aF0
aF0
aF0
aF0
aa(lp5751
F0
aF0
aF0
aF0
aF0
aa(lp5752
F0
aF0
aF0
aF0
aF0
aa(lp5753
F0
aF0
aF0
aF0
aF0
aa(lp5754
F0
aF0
aF0
aF0
aF0
aa(lp5755
F0
aF0
aF0
aF0
aF0
aa(lp5756
F0
aF0
aF0
aF0
aF0
aa(lp5757
F0
aF0
aF0
aF0
aF0
aa(lp5758
F0
aF0
aF0
aF0
aF0
aa(lp5759
F0
aF0
aF0
aF0
aF0
aa(lp5760
F0
aF0
aF0
aF0
aF0
aa(lp5761
F0
aF0
aF0
aF0
aF0
aa(lp5762
F0
aF0
aF0
aF0
aF0
aa(lp5763
F0
aF0
aF0
aF0
aF0
aa(lp5764
F0
aF0
aF0
aF0
aF0
aa(lp5765
F0
aF0
aF0
aF0
aF0
aa(lp5766
F1
aF1
aF0
aF1
aF0
aa(lp5767
F0
aF0
aF0
aF0
aF0
aa(lp5768
F0
aF0
aF0
aF0
aF0
aa(lp5769
F0
aF0
aF0
aF0
aF0
aa(lp5770
F0
aF0
aF0
aF0
aF0
aa(lp5771
F0
aF0
aF0
aF0
aF0
aa(lp5772
F0
aF0
aF0
aF0
aF0
aa(lp5773
F0
aF0
aF0
aF0
aF0
aa(lp5774
F0
aF0
aF0
aF0
aF0
aa(lp5775
F0
aF0
aF0
aF0
aF0
aa(lp5776
F0
aF0
aF0
aF0
aF0
aa(lp5777
F0
aF0
aF0
aF0
aF0
aa(lp5778
F0
aF0
aF0
aF0
aF0
aa(lp5779
F0
aF0
aF0
aF0
aF0
aa(lp5780
F0
aF0
aF0
aF0
aF0
aa(lp5781
F0
aF0
aF0
aF0
aF0
aa(lp5782
F0
aF0
aF0
aF0
aF0
aa(lp5783
F0
aF0
aF0
aF0
aF0
aa(lp5784
F0
aF0
aF0
aF0
aF0
aa(lp5785
F0
aF0
aF0
aF0
aF0
aa(lp5786
F0
aF0
aF0
aF0
aF0
aa(lp5787
F0
aF0
aF0
aF0
aF0
aa(lp5788
F0
aF0
aF0
aF0
aF0
aa(lp5789
F0
aF0
aF0
aF0
aF0
aa(lp5790
F0
aF0
aF0
aF0
aF0
aa(lp5791
F0
aF0
aF0
aF0
aF0
aa(lp5792
F0
aF0
aF0
aF0
aF0
aa(lp5793
F0
aF0
aF0
aF0
aF0
aa(lp5794
F0
aF0
aF0
aF0
aF0
aa(lp5795
F0
aF0
aF0
aF0
aF0
aa(lp5796
F0
aF0
aF0
aF0
aF0
aa(lp5797
F0
aF0
aF0
aF0
aF0
aa(lp5798
F0
aF0
aF0
aF0
aF0
aa(lp5799
F0
aF0
aF0
aF0
aF0
aa(lp5800
F0
aF0
aF0
aF0
aF0
aa(lp5801
F0
aF0
aF0
aF0
aF0
aa(lp5802
F0
aF0
aF0
aF0
aF0
aa(lp5803
F0
aF0
aF0
aF0
aF0
aa(lp5804
F0
aF0
aF0
aF0
aF0
aa(lp5805
F0
aF0
aF0
aF0
aF0
aa(lp5806
F0
aF0
aF0
aF0
aF0
aa(lp5807
F0
aF0
aF0
aF0
aF0
aa(lp5808
F0
aF0
aF0
aF0
aF0
aa(lp5809
F0
aF0
aF0
aF0
aF0
aa(lp5810
F0
aF0
aF0
aF0
aF0
aa(lp5811
F0
aF0
aF0
aF0
aF0
aa(lp5812
F0
aF0
aF0
aF0
aF0
aa(lp5813
F0
aF0
aF0
aF0
aF0
aa(lp5814
F0
aF0
aF0
aF0
aF0
aa(lp5815
F0
aF0
aF0
aF0
aF0
aa(lp5816
F0
aF0
aF0
aF0
aF0
aa(lp5817
F0
aF0
aF0
aF0
aF0
aa(lp5818
F0
aF0
aF0
aF0
aF0
aa(lp5819
F0
aF0
aF0
aF0
aF0
aa(lp5820
F0
aF0
aF0
aF0
aF0
aa(lp5821
F0
aF0
aF0
aF0
aF0
aa(lp5822
F0
aF0
aF0
aF0
aF0
aa(lp5823
F0
aF0
aF0
aF0
aF0
aa(lp5824
F0
aF0
aF0
aF0
aF0
aa(lp5825
F0
aF0
aF0
aF0
aF0
aa(lp5826
F0
aF0
aF0
aF0
aF0
aa(lp5827
F0
aF0
aF0
aF0
aF0
aa(lp5828
F0
aF0
aF0
aF0
aF0
aa(lp5829
F0
aF0
aF0
aF0
aF0
aa(lp5830
F0
aF0
aF0
aF0
aF0
aaa(lp5831
(lp5832
F0
aF0
aF0
aF0
aF0
aa(lp5833
F0
aF0
aF0
aF0
aF0
aa(lp5834
F0
aF0
aF0
aF0
aF0
aa(lp5835
F0
aF0
aF0
aF0
aF0
aa(lp5836
F0
aF0
aF0
aF0
aF0
aa(lp5837
F0
aF0
aF0
aF0
aF0
aa(lp5838
F0
aF0
aF0
aF0
aF0
aa(lp5839
F0
aF0
aF0
aF0
aF0
aa(lp5840
F0
aF0
aF0
aF0
aF0
aa(lp5841
F0
aF0
aF0
aF0
aF0
aa(lp5842
F0
aF0
aF0
aF0
aF0
aa(lp5843
F0
aF0
aF0
aF0
aF0
aa(lp5844
F0
aF0
aF0
aF0
aF0
aa(lp5845
F0
aF0
aF0
aF0
aF0
aa(lp5846
F0
aF0
aF0
aF0
aF0
aa(lp5847
F0
aF0
aF0
aF0
aF0
aa(lp5848
F0
aF0
aF0
aF0
aF0
aa(lp5849
F0
aF0
aF0
aF0
aF0
aa(lp5850
F0
aF0
aF0
aF0
aF0
aa(lp5851
F0
aF0
aF0
aF0
aF0
aa(lp5852
F0
aF0
aF0
aF0
aF0
aa(lp5853
F0
aF0
aF0
aF0
aF0
aa(lp5854
F0
aF0
aF0
aF0
aF0
aa(lp5855
F0
aF0
aF0
aF0
aF0
aa(lp5856
F0
aF0
aF0
aF0
aF0
aa(lp5857
F0
aF0
aF0
aF0
aF0
aa(lp5858
F0
aF0
aF0
aF0
aF0
aa(lp5859
F0
aF0
aF0
aF0
aF0
aa(lp5860
F0
aF0
aF0
aF0
aF0
aa(lp5861
F0
aF0
aF0
aF0
aF0
aa(lp5862
F0
aF0
aF0
aF0
aF0
aa(lp5863
F0
aF0
aF0
aF0
aF0
aa(lp5864
F0
aF0
aF0
aF0
aF0
aa(lp5865
F0
aF0
aF0
aF0
aF0
aa(lp5866
F0
aF0
aF0
aF0
aF0
aa(lp5867
F0
aF0
aF0
aF0
aF0
aa(lp5868
F0
aF0
aF0
aF0
aF0
aa(lp5869
F0
aF0
aF0
aF0
aF0
aa(lp5870
F0
aF0
aF0
aF0
aF0
aa(lp5871
F0
aF0
aF0
aF0
aF0
aa(lp5872
F0
aF0
aF0
aF0
aF0
aa(lp5873
F0
aF0
aF0
aF0
aF0
aa(lp5874
F0
aF0
aF0
aF0
aF0
aa(lp5875
F0
aF0
aF0
aF0
aF0
aa(lp5876
F0
aF0
aF0
aF0
aF0
aa(lp5877
F0
aF0
aF0
aF0
aF0
aa(lp5878
F0
aF0
aF0
aF0
aF0
aa(lp5879
F0
aF0
aF0
aF0
aF0
aa(lp5880
F0
aF0
aF0
aF0
aF0
aa(lp5881
F1
aF0
aF0
aF1
aF0
aa(lp5882
F0
aF0
aF0
aF0
aF0
aa(lp5883
F0
aF0
aF0
aF0
aF0
aa(lp5884
F0
aF0
aF0
aF0
aF0
aa(lp5885
F0
aF0
aF0
aF0
aF0
aa(lp5886
F0
aF0
aF0
aF0
aF0
aa(lp5887
F0
aF0
aF0
aF0
aF0
aa(lp5888
F0
aF0
aF0
aF0
aF0
aa(lp5889
F0
aF0
aF0
aF0
aF0
aa(lp5890
F0
aF0
aF0
aF0
aF0
aa(lp5891
F0
aF0
aF0
aF0
aF0
aa(lp5892
F0
aF0
aF0
aF0
aF0
aa(lp5893
F0
aF0
aF0
aF0
aF0
aa(lp5894
F0
aF0
aF0
aF0
aF0
aa(lp5895
F0
aF0
aF0
aF0
aF0
aa(lp5896
F0
aF0
aF0
aF0
aF0
aa(lp5897
F0
aF0
aF0
aF0
aF0
aa(lp5898
F0
aF0
aF0
aF0
aF0
aa(lp5899
F0
aF0
aF0
aF0
aF0
aa(lp5900
F0
aF0
aF0
aF0
aF0
aa(lp5901
F0
aF0
aF0
aF0
aF0
aa(lp5902
F0
aF0
aF0
aF0
aF0
aa(lp5903
F0
aF0
aF0
aF0
aF0
aa(lp5904
F0
aF0
aF0
aF0
aF0
aa(lp5905
F0
aF0
aF0
aF0
aF0
aa(lp5906
F0
aF0
aF0
aF0
aF0
aa(lp5907
F0
aF0
aF0
aF0
aF0
aa(lp5908
F0
aF0
aF0
aF0
aF0
aa(lp5909
F0
aF0
aF0
aF0
aF0
aa(lp5910
F0
aF0
aF0
aF0
aF0
aa(lp5911
F0
aF0
aF0
aF0
aF0
aa(lp5912
F0
aF0
aF0
aF0
aF0
aa(lp5913
F0
aF0
aF0
aF0
aF0
aa(lp5914
F0
aF0
aF0
aF0
aF0
aa(lp5915
F0
aF0
aF0
aF0
aF0
aa(lp5916
F0
aF0
aF0
aF0
aF0
aa(lp5917
F0
aF0
aF0
aF0
aF0
aaa(lp5918
(lp5919
F0
aF0
aF0
aF0
aF0
aa(lp5920
F0
aF0
aF0
aF0
aF0
aa(lp5921
F0
aF0
aF0
aF0
aF0
aa(lp5922
F0
aF0
aF0
aF0
aF0
aa(lp5923
F0
aF0
aF0
aF0
aF0
aa(lp5924
F0
aF0
aF0
aF0
aF0
aa(lp5925
F0
aF0
aF0
aF0
aF0
aa(lp5926
F0
aF0
aF0
aF0
aF0
aa(lp5927
F0
aF0
aF0
aF0
aF0
aa(lp5928
F0
aF0
aF0
aF0
aF0
aa(lp5929
F0
aF0
aF0
aF0
aF0
aa(lp5930
F0
aF0
aF0
aF0
aF0
aa(lp5931
F0
aF0
aF0
aF0
aF0
aa(lp5932
F0
aF0
aF0
aF0
aF0
aa(lp5933
F0
aF0
aF0
aF0
aF0
aa(lp5934
F0
aF0
aF0
aF0
aF0
aa(lp5935
F0
aF0
aF0
aF0
aF0
aa(lp5936
F0
aF0
aF0
aF0
aF0
aa(lp5937
F0
aF0
aF0
aF0
aF0
aa(lp5938
F0
aF0
aF0
aF0
aF0
aa(lp5939
F0
aF0
aF0
aF0
aF0
aa(lp5940
F0
aF0
aF0
aF0
aF0
aa(lp5941
F0
aF0
aF0
aF0
aF0
aa(lp5942
F0
aF0
aF0
aF0
aF0
aa(lp5943
F0
aF0
aF0
aF0
aF0
aa(lp5944
F0
aF0
aF0
aF0
aF0
aa(lp5945
F0
aF0
aF0
aF0
aF0
aa(lp5946
F0
aF0
aF0
aF0
aF0
aa(lp5947
F0
aF0
aF0
aF0
aF0
aa(lp5948
F0
aF0
aF0
aF0
aF0
aa(lp5949
F0
aF0
aF0
aF0
aF0
aa(lp5950
F0
aF0
aF0
aF0
aF0
aa(lp5951
F1
aF1
aF0
aF1
aF0
aa(lp5952
F0
aF0
aF0
aF0
aF0
aa(lp5953
F0
aF0
aF0
aF0
aF0
aa(lp5954
F0
aF0
aF0
aF0
aF0
aa(lp5955
F0
aF0
aF0
aF0
aF0
aa(lp5956
F0
aF0
aF0
aF0
aF0
aa(lp5957
F0
aF0
aF0
aF0
aF0
aa(lp5958
F0
aF0
aF0
aF0
aF0
aa(lp5959
F0
aF0
aF0
aF0
aF0
aa(lp5960
F0
aF0
aF0
aF0
aF0
aa(lp5961
F0
aF0
aF0
aF0
aF0
aa(lp5962
F0
aF0
aF0
aF0
aF0
aa(lp5963
F0
aF0
aF0
aF0
aF0
aa(lp5964
F0
aF0
aF0
aF0
aF0
aa(lp5965
F0
aF0
aF0
aF0
aF0
aa(lp5966
F0
aF0
aF0
aF0
aF0
aa(lp5967
F0
aF0
aF0
aF0
aF0
aa(lp5968
F0
aF0
aF0
aF0
aF0
aa(lp5969
F0
aF0
aF0
aF0
aF0
aa(lp5970
F0
aF0
aF0
aF0
aF0
aa(lp5971
F0
aF0
aF0
aF0
aF0
aa(lp5972
F0
aF0
aF0
aF0
aF0
aa(lp5973
F0
aF0
aF0
aF0
aF0
aa(lp5974
F0
aF0
aF0
aF0
aF0
aa(lp5975
F0
aF0
aF0
aF0
aF0
aa(lp5976
F0
aF0
aF0
aF0
aF0
aa(lp5977
F0
aF0
aF0
aF0
aF0
aa(lp5978
F0
aF0
aF0
aF0
aF0
aa(lp5979
F0
aF0
aF0
aF0
aF0
aa(lp5980
F0
aF0
aF0
aF0
aF0
aa(lp5981
F0
aF0
aF0
aF0
aF0
aa(lp5982
F0
aF0
aF0
aF0
aF0
aa(lp5983
F0
aF0
aF0
aF0
aF0
aa(lp5984
F0
aF0
aF0
aF0
aF0
aa(lp5985
F0
aF0
aF0
aF0
aF0
aa(lp5986
F0
aF0
aF0
aF0
aF0
aa(lp5987
F0
aF0
aF0
aF0
aF0
aa(lp5988
F0
aF0
aF0
aF0
aF0
aa(lp5989
F0
aF0
aF0
aF0
aF0
aa(lp5990
F0
aF0
aF0
aF0
aF0
aa(lp5991
F0
aF0
aF0
aF0
aF0
aa(lp5992
F0
aF0
aF0
aF0
aF0
aa(lp5993
F0
aF0
aF0
aF0
aF0
aa(lp5994
F0
aF0
aF0
aF0
aF0
aa(lp5995
F0
aF0
aF0
aF0
aF0
aa(lp5996
F0
aF0
aF0
aF0
aF0
aa(lp5997
F0
aF0
aF0
aF0
aF0
aa(lp5998
F0
aF0
aF0
aF0
aF0
aa(lp5999
F0
aF0
aF0
aF0
aF0
aa(lp6000
F0
aF0
aF0
aF0
aF0
aa(lp6001
F0
aF0
aF0
aF0
aF0
aa(lp6002
F0
aF0
aF0
aF0
aF0
aa(lp6003
F0
aF0
aF0
aF0
aF0
aa(lp6004
F0
aF0
aF0
aF0
aF0
aaa(lp6005
(lp6006
F0
aF0
aF0
aF0
aF0
aa(lp6007
F0
aF0
aF0
aF0
aF0
aa(lp6008
F0
aF0
aF0
aF0
aF0
aa(lp6009
F0
aF0
aF0
aF0
aF0
aa(lp6010
F0
aF0
aF0
aF0
aF0
aa(lp6011
F0
aF0
aF0
aF0
aF0
aa(lp6012
F0
aF0
aF0
aF0
aF0
aa(lp6013
F0
aF0
aF0
aF0
aF0
aa(lp6014
F0
aF0
aF0
aF0
aF0
aa(lp6015
F0
aF0
aF0
aF0
aF0
aa(lp6016
F1
aF0
aF0
aF1
aF0
aa(lp6017
F0
aF0
aF0
aF0
aF0
aa(lp6018
F0
aF0
aF0
aF0
aF0
aa(lp6019
F0
aF0
aF0
aF0
aF0
aa(lp6020
F0
aF0
aF0
aF0
aF0
aa(lp6021
F0
aF0
aF0
aF0
aF0
aa(lp6022
F0
aF0
aF0
aF0
aF0
aa(lp6023
F0
aF0
aF0
aF0
aF0
aa(lp6024
F0
aF0
aF0
aF0
aF0
aa(lp6025
F0
aF0
aF0
aF0
aF0
aa(lp6026
F0
aF0
aF0
aF0
aF0
aa(lp6027
F0
aF0
aF0
aF0
aF0
aa(lp6028
F0
aF0
aF0
aF0
aF0
aa(lp6029
F0
aF0
aF0
aF0
aF0
aa(lp6030
F0
aF0
aF0
aF0
aF0
aa(lp6031
F0
aF0
aF0
aF0
aF0
aa(lp6032
F0
aF0
aF0
aF0
aF0
aa(lp6033
F0
aF0
aF0
aF0
aF0
aa(lp6034
F0
aF0
aF0
aF0
aF0
aa(lp6035
F0
aF0
aF0
aF0
aF0
aa(lp6036
F0
aF0
aF0
aF0
aF0
aa(lp6037
F0
aF0
aF0
aF0
aF0
aa(lp6038
F0
aF0
aF0
aF0
aF0
aa(lp6039
F0
aF0
aF0
aF0
aF0
aa(lp6040
F0
aF0
aF0
aF0
aF0
aa(lp6041
F0
aF0
aF0
aF0
aF0
aa(lp6042
F0
aF0
aF0
aF0
aF0
aa(lp6043
F0
aF0
aF0
aF0
aF0
aa(lp6044
F0
aF0
aF0
aF0
aF0
aa(lp6045
F0
aF0
aF0
aF0
aF0
aa(lp6046
F0
aF0
aF0
aF0
aF0
aa(lp6047
F0
aF0
aF0
aF0
aF0
aa(lp6048
F0
aF0
aF0
aF0
aF0
aa(lp6049
F0
aF0
aF0
aF0
aF0
aa(lp6050
F0
aF0
aF0
aF0
aF0
aa(lp6051
F0
aF0
aF0
aF0
aF0
aa(lp6052
F0
aF0
aF0
aF0
aF0
aa(lp6053
F0
aF0
aF0
aF0
aF0
aa(lp6054
F0
aF0
aF0
aF0
aF0
aa(lp6055
F0
aF0
aF0
aF0
aF0
aa(lp6056
F0
aF0
aF0
aF0
aF0
aa(lp6057
F0
aF0
aF0
aF0
aF0
aa(lp6058
F0
aF0
aF0
aF0
aF0
aa(lp6059
F0
aF0
aF0
aF0
aF0
aa(lp6060
F0
aF0
aF0
aF0
aF0
aa(lp6061
F0
aF0
aF0
aF0
aF0
aa(lp6062
F0
aF0
aF0
aF0
aF0
aa(lp6063
F0
aF0
aF0
aF0
aF0
aa(lp6064
F0
aF0
aF0
aF0
aF0
aa(lp6065
F0
aF0
aF0
aF0
aF0
aa(lp6066
F0
aF0
aF0
aF0
aF0
aa(lp6067
F0
aF0
aF0
aF0
aF0
aa(lp6068
F0
aF0
aF0
aF0
aF0
aa(lp6069
F0
aF0
aF0
aF0
aF0
aa(lp6070
F0
aF0
aF0
aF0
aF0
aa(lp6071
F0
aF0
aF0
aF0
aF0
aa(lp6072
F0
aF0
aF0
aF0
aF0
aa(lp6073
F0
aF0
aF0
aF0
aF0
aa(lp6074
F0
aF0
aF0
aF0
aF0
aa(lp6075
F0
aF0
aF0
aF0
aF0
aa(lp6076
F0
aF0
aF0
aF0
aF0
aa(lp6077
F0
aF0
aF0
aF0
aF0
aa(lp6078
F0
aF0
aF0
aF0
aF0
aa(lp6079
F0
aF0
aF0
aF0
aF0
aa(lp6080
F0
aF0
aF0
aF0
aF0
aa(lp6081
F0
aF0
aF0
aF0
aF0
aa(lp6082
F0
aF0
aF0
aF0
aF0
aa(lp6083
F0
aF0
aF0
aF0
aF0
aa(lp6084
F0
aF0
aF0
aF0
aF0
aa(lp6085
F0
aF0
aF0
aF0
aF0
aa(lp6086
F0
aF0
aF0
aF0
aF0
aa(lp6087
F0
aF0
aF0
aF0
aF0
aa(lp6088
F0
aF0
aF0
aF0
aF0
aa(lp6089
F0
aF0
aF0
aF0
aF0
aa(lp6090
F0
aF0
aF0
aF0
aF0
aa(lp6091
F0
aF0
aF0
aF0
aF0
aaa(lp6092
(lp6093
F0
aF0
aF0
aF0
aF0
aa(lp6094
F0
aF0
aF0
aF0
aF0
aa(lp6095
F0
aF0
aF0
aF0
aF0
aa(lp6096
F0
aF0
aF0
aF0
aF0
aa(lp6097
F0
aF0
aF0
aF0
aF0
aa(lp6098
F0
aF0
aF0
aF0
aF0
aa(lp6099
F0
aF0
aF0
aF0
aF0
aa(lp6100
F0
aF0
aF0
aF0
aF0
aa(lp6101
F0
aF0
aF0
aF0
aF0
aa(lp6102
F0
aF0
aF0
aF0
aF0
aa(lp6103
F0
aF0
aF0
aF0
aF0
aa(lp6104
F0
aF0
aF0
aF0
aF0
aa(lp6105
F0
aF0
aF0
aF0
aF0
aa(lp6106
F0
aF0
aF0
aF0
aF0
aa(lp6107
F0
aF0
aF0
aF0
aF0
aa(lp6108
F0
aF0
aF0
aF0
aF0
aa(lp6109
F0
aF0
aF0
aF0
aF0
aa(lp6110
F0
aF0
aF0
aF0
aF0
aa(lp6111
F0
aF0
aF0
aF0
aF0
aa(lp6112
F0
aF0
aF0
aF0
aF0
aa(lp6113
F0
aF0
aF0
aF0
aF0
aa(lp6114
F0
aF0
aF0
aF0
aF0
aa(lp6115
F0
aF0
aF0
aF0
aF0
aa(lp6116
F0
aF0
aF0
aF0
aF0
aa(lp6117
F0
aF0
aF0
aF0
aF0
aa(lp6118
F0
aF0
aF0
aF0
aF0
aa(lp6119
F0
aF0
aF0
aF0
aF0
aa(lp6120
F0
aF0
aF0
aF0
aF0
aa(lp6121
F0
aF0
aF0
aF0
aF0
aa(lp6122
F0
aF0
aF0
aF0
aF0
aa(lp6123
F0
aF0
aF0
aF0
aF0
aa(lp6124
F0
aF0
aF0
aF0
aF0
aa(lp6125
F0
aF0
aF0
aF0
aF0
aa(lp6126
F0
aF0
aF0
aF0
aF0
aa(lp6127
F0
aF0
aF0
aF0
aF0
aa(lp6128
F0
aF0
aF0
aF0
aF0
aa(lp6129
F0
aF0
aF0
aF0
aF0
aa(lp6130
F0
aF0
aF0
aF0
aF0
aa(lp6131
F0
aF0
aF0
aF0
aF0
aa(lp6132
F0
aF0
aF0
aF0
aF0
aa(lp6133
F0
aF0
aF0
aF0
aF0
aa(lp6134
F0
aF0
aF0
aF0
aF0
aa(lp6135
F0
aF0
aF0
aF0
aF0
aa(lp6136
F0
aF0
aF0
aF0
aF0
aa(lp6137
F0
aF0
aF0
aF0
aF0
aa(lp6138
F1
aF1
aF0
aF1
aF0
aa(lp6139
F0
aF0
aF0
aF0
aF0
aa(lp6140
F0
aF0
aF0
aF0
aF0
aa(lp6141
F0
aF0
aF0
aF0
aF0
aa(lp6142
F0
aF0
aF0
aF0
aF0
aa(lp6143
F0
aF0
aF0
aF0
aF0
aa(lp6144
F0
aF0
aF0
aF0
aF0
aa(lp6145
F0
aF0
aF0
aF0
aF0
aa(lp6146
F0
aF0
aF0
aF0
aF0
aa(lp6147
F0
aF0
aF0
aF0
aF0
aa(lp6148
F0
aF0
aF0
aF0
aF0
aa(lp6149
F0
aF0
aF0
aF0
aF0
aa(lp6150
F0
aF0
aF0
aF0
aF0
aa(lp6151
F0
aF0
aF0
aF0
aF0
aa(lp6152
F0
aF0
aF0
aF0
aF0
aa(lp6153
F0
aF0
aF0
aF0
aF0
aa(lp6154
F0
aF0
aF0
aF0
aF0
aa(lp6155
F0
aF0
aF0
aF0
aF0
aa(lp6156
F0
aF0
aF0
aF0
aF0
aa(lp6157
F0
aF0
aF0
aF0
aF0
aa(lp6158
F0
aF0
aF0
aF0
aF0
aa(lp6159
F0
aF0
aF0
aF0
aF0
aa(lp6160
F0
aF0
aF0
aF0
aF0
aa(lp6161
F0
aF0
aF0
aF0
aF0
aa(lp6162
F0
aF0
aF0
aF0
aF0
aa(lp6163
F0
aF0
aF0
aF0
aF0
aa(lp6164
F0
aF0
aF0
aF0
aF0
aa(lp6165
F0
aF0
aF0
aF0
aF0
aa(lp6166
F0
aF0
aF0
aF0
aF0
aa(lp6167
F0
aF0
aF0
aF0
aF0
aa(lp6168
F0
aF0
aF0
aF0
aF0
aa(lp6169
F0
aF0
aF0
aF0
aF0
aa(lp6170
F0
aF0
aF0
aF0
aF0
aa(lp6171
F0
aF0
aF0
aF0
aF0
aa(lp6172
F0
aF0
aF0
aF0
aF0
aa(lp6173
F0
aF0
aF0
aF0
aF0
aa(lp6174
F0
aF0
aF0
aF0
aF0
aa(lp6175
F0
aF0
aF0
aF0
aF0
aa(lp6176
F0
aF0
aF0
aF0
aF0
aa(lp6177
F0
aF0
aF0
aF0
aF0
aa(lp6178
F0
aF0
aF0
aF0
aF0
aaa(lp6179
(lp6180
F0
aF0
aF0
aF0
aF0
aa(lp6181
F0
aF0
aF0
aF0
aF0
aa(lp6182
F0
aF0
aF0
aF0
aF0
aa(lp6183
F0
aF0
aF0
aF0
aF0
aa(lp6184
F0
aF0
aF0
aF0
aF0
aa(lp6185
F0
aF0
aF0
aF0
aF0
aa(lp6186
F0
aF0
aF0
aF0
aF0
aa(lp6187
F0
aF0
aF0
aF0
aF0
aa(lp6188
F0
aF0
aF0
aF0
aF0
aa(lp6189
F0
aF0
aF0
aF0
aF0
aa(lp6190
F0
aF0
aF0
aF0
aF0
aa(lp6191
F0
aF0
aF0
aF0
aF0
aa(lp6192
F0
aF0
aF0
aF0
aF0
aa(lp6193
F0
aF0
aF0
aF0
aF0
aa(lp6194
F0
aF0
aF0
aF0
aF0
aa(lp6195
F0
aF0
aF0
aF0
aF0
aa(lp6196
F0
aF0
aF0
aF0
aF0
aa(lp6197
F0
aF0
aF0
aF0
aF0
aa(lp6198
F1
aF0
aF0
aF1
aF0
aa(lp6199
F0
aF0
aF0
aF0
aF0
aa(lp6200
F0
aF0
aF0
aF0
aF0
aa(lp6201
F0
aF0
aF0
aF0
aF0
aa(lp6202
F0
aF0
aF0
aF0
aF0
aa(lp6203
F0
aF0
aF0
aF0
aF0
aa(lp6204
F0
aF0
aF0
aF0
aF0
aa(lp6205
F0
aF0
aF0
aF0
aF0
aa(lp6206
F0
aF0
aF0
aF0
aF0
aa(lp6207
F0
aF0
aF0
aF0
aF0
aa(lp6208
F0
aF0
aF0
aF0
aF0
aa(lp6209
F0
aF0
aF0
aF0
aF0
aa(lp6210
F0
aF0
aF0
aF0
aF0
aa(lp6211
F0
aF0
aF0
aF0
aF0
aa(lp6212
F0
aF0
aF0
aF0
aF0
aa(lp6213
F0
aF0
aF0
aF0
aF0
aa(lp6214
F0
aF0
aF0
aF0
aF0
aa(lp6215
F0
aF0
aF0
aF0
aF0
aa(lp6216
F0
aF0
aF0
aF0
aF0
aa(lp6217
F0
aF0
aF0
aF0
aF0
aa(lp6218
F0
aF0
aF0
aF0
aF0
aa(lp6219
F0
aF0
aF0
aF0
aF0
aa(lp6220
F0
aF0
aF0
aF0
aF0
aa(lp6221
F0
aF0
aF0
aF0
aF0
aa(lp6222
F0
aF0
aF0
aF0
aF0
aa(lp6223
F0
aF0
aF0
aF0
aF0
aa(lp6224
F0
aF0
aF0
aF0
aF0
aa(lp6225
F0
aF0
aF0
aF0
aF0
aa(lp6226
F0
aF0
aF0
aF0
aF0
aa(lp6227
F0
aF0
aF0
aF0
aF0
aa(lp6228
F0
aF0
aF0
aF0
aF0
aa(lp6229
F0
aF0
aF0
aF0
aF0
aa(lp6230
F0
aF0
aF0
aF0
aF0
aa(lp6231
F0
aF0
aF0
aF0
aF0
aa(lp6232
F0
aF0
aF0
aF0
aF0
aa(lp6233
F0
aF0
aF0
aF0
aF0
aa(lp6234
F0
aF0
aF0
aF0
aF0
aa(lp6235
F0
aF0
aF0
aF0
aF0
aa(lp6236
F0
aF0
aF0
aF0
aF0
aa(lp6237
F0
aF0
aF0
aF0
aF0
aa(lp6238
F0
aF0
aF0
aF0
aF0
aa(lp6239
F0
aF0
aF0
aF0
aF0
aa(lp6240
F0
aF0
aF0
aF0
aF0
aa(lp6241
F0
aF0
aF0
aF0
aF0
aa(lp6242
F0
aF0
aF0
aF0
aF0
aa(lp6243
F0
aF0
aF0
aF0
aF0
aa(lp6244
F0
aF0
aF0
aF0
aF0
aa(lp6245
F0
aF0
aF0
aF0
aF0
aa(lp6246
F0
aF0
aF0
aF0
aF0
aa(lp6247
F0
aF0
aF0
aF0
aF0
aa(lp6248
F0
aF0
aF0
aF0
aF0
aa(lp6249
F0
aF0
aF0
aF0
aF0
aa(lp6250
F0
aF0
aF0
aF0
aF0
aa(lp6251
F0
aF0
aF0
aF0
aF0
aa(lp6252
F0
aF0
aF0
aF0
aF0
aa(lp6253
F0
aF0
aF0
aF0
aF0
aa(lp6254
F0
aF0
aF0
aF0
aF0
aa(lp6255
F0
aF0
aF0
aF0
aF0
aa(lp6256
F0
aF0
aF0
aF0
aF0
aa(lp6257
F0
aF0
aF0
aF0
aF0
aa(lp6258
F0
aF0
aF0
aF0
aF0
aa(lp6259
F0
aF0
aF0
aF0
aF0
aa(lp6260
F0
aF0
aF0
aF0
aF0
aa(lp6261
F0
aF0
aF0
aF0
aF0
aa(lp6262
F0
aF0
aF0
aF0
aF0
aa(lp6263
F0
aF0
aF0
aF0
aF0
aa(lp6264
F0
aF0
aF0
aF0
aF0
aa(lp6265
F0
aF0
aF0
aF0
aF0
aaa(lp6266
(lp6267
F0
aF0
aF0
aF0
aF0
aa(lp6268
F0
aF0
aF0
aF0
aF0
aa(lp6269
F0
aF0
aF0
aF0
aF0
aa(lp6270
F0
aF0
aF0
aF0
aF0
aa(lp6271
F0
aF0
aF0
aF0
aF0
aa(lp6272
F0
aF0
aF0
aF0
aF0
aa(lp6273
F0
aF0
aF0
aF0
aF0
aa(lp6274
F0
aF0
aF0
aF0
aF0
aa(lp6275
F0
aF0
aF0
aF0
aF0
aa(lp6276
F0
aF0
aF0
aF0
aF0
aa(lp6277
F0
aF0
aF0
aF0
aF0
aa(lp6278
F0
aF0
aF0
aF0
aF0
aa(lp6279
F0
aF0
aF0
aF0
aF0
aa(lp6280
F0
aF0
aF0
aF0
aF0
aa(lp6281
F0
aF0
aF0
aF0
aF0
aa(lp6282
F0
aF0
aF0
aF0
aF0
aa(lp6283
F0
aF0
aF0
aF0
aF0
aa(lp6284
F0
aF0
aF0
aF0
aF0
aa(lp6285
F1
aF0
aF0
aF1
aF0
aa(lp6286
F0
aF0
aF0
aF0
aF0
aa(lp6287
F0
aF0
aF0
aF0
aF0
aa(lp6288
F0
aF0
aF0
aF0
aF0
aa(lp6289
F0
aF0
aF0
aF0
aF0
aa(lp6290
F0
aF0
aF0
aF0
aF0
aa(lp6291
F0
aF0
aF0
aF0
aF0
aa(lp6292
F0
aF0
aF0
aF0
aF0
aa(lp6293
F0
aF0
aF0
aF0
aF0
aa(lp6294
F0
aF0
aF0
aF0
aF0
aa(lp6295
F0
aF0
aF0
aF0
aF0
aa(lp6296
F0
aF0
aF0
aF0
aF0
aa(lp6297
F0
aF0
aF0
aF0
aF0
aa(lp6298
F0
aF0
aF0
aF0
aF0
aa(lp6299
F0
aF0
aF0
aF0
aF0
aa(lp6300
F0
aF0
aF0
aF0
aF0
aa(lp6301
F0
aF0
aF0
aF0
aF0
aa(lp6302
F0
aF0
aF0
aF0
aF0
aa(lp6303
F0
aF0
aF0
aF0
aF0
aa(lp6304
F0
aF0
aF0
aF0
aF0
aa(lp6305
F0
aF0
aF0
aF0
aF0
aa(lp6306
F0
aF0
aF0
aF0
aF0
aa(lp6307
F0
aF0
aF0
aF0
aF0
aa(lp6308
F0
aF0
aF0
aF0
aF0
aa(lp6309
F0
aF0
aF0
aF0
aF0
aa(lp6310
F0
aF0
aF0
aF0
aF0
aa(lp6311
F0
aF0
aF0
aF0
aF0
aa(lp6312
F0
aF0
aF0
aF0
aF0
aa(lp6313
F0
aF0
aF0
aF0
aF0
aa(lp6314
F0
aF0
aF0
aF0
aF0
aa(lp6315
F0
aF0
aF0
aF0
aF0
aa(lp6316
F0
aF0
aF0
aF0
aF0
aa(lp6317
F0
aF0
aF0
aF0
aF0
aa(lp6318
F0
aF0
aF0
aF0
aF0
aa(lp6319
F0
aF0
aF0
aF0
aF0
aa(lp6320
F0
aF0
aF0
aF0
aF0
aa(lp6321
F0
aF0
aF0
aF0
aF0
aa(lp6322
F0
aF0
aF0
aF0
aF0
aa(lp6323
F0
aF0
aF0
aF0
aF0
aa(lp6324
F0
aF0
aF0
aF0
aF0
aa(lp6325
F0
aF0
aF0
aF0
aF0
aa(lp6326
F0
aF0
aF0
aF0
aF0
aa(lp6327
F0
aF0
aF0
aF0
aF0
aa(lp6328
F0
aF0
aF0
aF0
aF0
aa(lp6329
F0
aF0
aF0
aF0
aF0
aa(lp6330
F0
aF0
aF0
aF0
aF0
aa(lp6331
F0
aF0
aF0
aF0
aF0
aa(lp6332
F0
aF0
aF0
aF0
aF0
aa(lp6333
F0
aF0
aF0
aF0
aF0
aa(lp6334
F0
aF0
aF0
aF0
aF0
aa(lp6335
F0
aF0
aF0
aF0
aF0
aa(lp6336
F0
aF0
aF0
aF0
aF0
aa(lp6337
F0
aF0
aF0
aF0
aF0
aa(lp6338
F0
aF0
aF0
aF0
aF0
aa(lp6339
F0
aF0
aF0
aF0
aF0
aa(lp6340
F0
aF0
aF0
aF0
aF0
aa(lp6341
F0
aF0
aF0
aF0
aF0
aa(lp6342
F0
aF0
aF0
aF0
aF0
aa(lp6343
F0
aF0
aF0
aF0
aF0
aa(lp6344
F0
aF0
aF0
aF0
aF0
aa(lp6345
F0
aF0
aF0
aF0
aF0
aa(lp6346
F0
aF0
aF0
aF0
aF0
aa(lp6347
F0
aF0
aF0
aF0
aF0
aa(lp6348
F0
aF0
aF0
aF0
aF0
aa(lp6349
F0
aF0
aF0
aF0
aF0
aa(lp6350
F0
aF0
aF0
aF0
aF0
aa(lp6351
F0
aF0
aF0
aF0
aF0
aa(lp6352
F0
aF0
aF0
aF0
aF0
aaa(lp6353
(lp6354
F0
aF0
aF0
aF0
aF0
aa(lp6355
F0
aF0
aF0
aF0
aF0
aa(lp6356
F0
aF0
aF0
aF0
aF0
aa(lp6357
F0
aF0
aF0
aF0
aF0
aa(lp6358
F0
aF0
aF0
aF0
aF0
aa(lp6359
F0
aF0
aF0
aF0
aF0
aa(lp6360
F0
aF0
aF0
aF0
aF0
aa(lp6361
F0
aF0
aF0
aF0
aF0
aa(lp6362
F0
aF0
aF0
aF0
aF0
aa(lp6363
F0
aF0
aF0
aF0
aF0
aa(lp6364
F0
aF0
aF0
aF0
aF0
aa(lp6365
F0
aF0
aF0
aF0
aF0
aa(lp6366
F0
aF0
aF0
aF0
aF0
aa(lp6367
F0
aF0
aF0
aF0
aF0
aa(lp6368
F0
aF0
aF0
aF0
aF0
aa(lp6369
F0
aF0
aF0
aF0
aF0
aa(lp6370
F0
aF0
aF0
aF0
aF0
aa(lp6371
F0
aF0
aF0
aF0
aF0
aa(lp6372
F0
aF0
aF0
aF0
aF0
aa(lp6373
F0
aF0
aF0
aF0
aF0
aa(lp6374
F0
aF0
aF0
aF0
aF0
aa(lp6375
F0
aF0
aF0
aF0
aF0
aa(lp6376
F0
aF0
aF0
aF0
aF0
aa(lp6377
F0
aF0
aF0
aF0
aF0
aa(lp6378
F0
aF0
aF0
aF0
aF0
aa(lp6379
F0
aF0
aF0
aF0
aF0
aa(lp6380
F0
aF0
aF0
aF0
aF0
aa(lp6381
F0
aF0
aF0
aF0
aF0
aa(lp6382
F0
aF0
aF0
aF0
aF0
aa(lp6383
F0
aF0
aF0
aF0
aF0
aa(lp6384
F0
aF0
aF0
aF0
aF0
aa(lp6385
F0
aF0
aF0
aF0
aF0
aa(lp6386
F0
aF0
aF0
aF0
aF0
aa(lp6387
F0
aF0
aF0
aF0
aF0
aa(lp6388
F0
aF0
aF0
aF0
aF0
aa(lp6389
F0
aF0
aF0
aF0
aF0
aa(lp6390
F0
aF0
aF0
aF0
aF0
aa(lp6391
F0
aF0
aF0
aF0
aF0
aa(lp6392
F0
aF0
aF0
aF0
aF0
aa(lp6393
F0
aF0
aF0
aF0
aF0
aa(lp6394
F0
aF0
aF0
aF0
aF0
aa(lp6395
F0
aF0
aF0
aF0
aF0
aa(lp6396
F0
aF0
aF0
aF0
aF0
aa(lp6397
F0
aF0
aF0
aF0
aF0
aa(lp6398
F0
aF0
aF0
aF0
aF0
aa(lp6399
F0
aF0
aF0
aF0
aF0
aa(lp6400
F0
aF0
aF0
aF0
aF0
aa(lp6401
F0
aF0
aF0
aF0
aF0
aa(lp6402
F0
aF0
aF0
aF0
aF0
aa(lp6403
F1
aF0
aF0
aF1
aF0
aa(lp6404
F0
aF0
aF0
aF0
aF0
aa(lp6405
F0
aF0
aF0
aF0
aF0
aa(lp6406
F0
aF0
aF0
aF0
aF0
aa(lp6407
F0
aF0
aF0
aF0
aF0
aa(lp6408
F0
aF0
aF0
aF0
aF0
aa(lp6409
F0
aF0
aF0
aF0
aF0
aa(lp6410
F0
aF0
aF0
aF0
aF0
aa(lp6411
F0
aF0
aF0
aF0
aF0
aa(lp6412
F0
aF0
aF0
aF0
aF0
aa(lp6413
F0
aF0
aF0
aF0
aF0
aa(lp6414
F0
aF0
aF0
aF0
aF0
aa(lp6415
F0
aF0
aF0
aF0
aF0
aa(lp6416
F0
aF0
aF0
aF0
aF0
aa(lp6417
F0
aF0
aF0
aF0
aF0
aa(lp6418
F0
aF0
aF0
aF0
aF0
aa(lp6419
F0
aF0
aF0
aF0
aF0
aa(lp6420
F0
aF0
aF0
aF0
aF0
aa(lp6421
F0
aF0
aF0
aF0
aF0
aa(lp6422
F0
aF0
aF0
aF0
aF0
aa(lp6423
F0
aF0
aF0
aF0
aF0
aa(lp6424
F0
aF0
aF0
aF0
aF0
aa(lp6425
F0
aF0
aF0
aF0
aF0
aa(lp6426
F0
aF0
aF0
aF0
aF0
aa(lp6427
F0
aF0
aF0
aF0
aF0
aa(lp6428
F0
aF0
aF0
aF0
aF0
aa(lp6429
F0
aF0
aF0
aF0
aF0
aa(lp6430
F0
aF0
aF0
aF0
aF0
aa(lp6431
F0
aF0
aF0
aF0
aF0
aa(lp6432
F0
aF0
aF0
aF0
aF0
aa(lp6433
F0
aF0
aF0
aF0
aF0
aa(lp6434
F0
aF0
aF0
aF0
aF0
aa(lp6435
F0
aF0
aF0
aF0
aF0
aa(lp6436
F0
aF0
aF0
aF0
aF0
aa(lp6437
F0
aF0
aF0
aF0
aF0
aa(lp6438
F0
aF0
aF0
aF0
aF0
aa(lp6439
F0
aF0
aF0
aF0
aF0
aaa(lp6440
(lp6441
F0
aF0
aF0
aF0
aF0
aa(lp6442
F0
aF0
aF0
aF0
aF0
aa(lp6443
F0
aF0
aF0
aF0
aF0
aa(lp6444
F0
aF0
aF0
aF0
aF0
aa(lp6445
F0
aF0
aF0
aF0
aF0
aa(lp6446
F0
aF0
aF0
aF0
aF0
aa(lp6447
F0
aF0
aF0
aF0
aF0
aa(lp6448
F0
aF0
aF0
aF0
aF0
aa(lp6449
F0
aF0
aF0
aF0
aF0
aa(lp6450
F0
aF0
aF0
aF0
aF0
aa(lp6451
F0
aF0
aF0
aF0
aF0
aa(lp6452
F0
aF0
aF0
aF0
aF0
aa(lp6453
F0
aF0
aF0
aF0
aF0
aa(lp6454
F0
aF0
aF0
aF0
aF0
aa(lp6455
F0
aF0
aF0
aF0
aF0
aa(lp6456
F0
aF0
aF0
aF0
aF0
aa(lp6457
F0
aF0
aF0
aF0
aF0
aa(lp6458
F0
aF0
aF0
aF0
aF0
aa(lp6459
F0
aF0
aF0
aF0
aF0
aa(lp6460
F1
aF0
aF0
aF1
aF0
aa(lp6461
F0
aF0
aF0
aF0
aF0
aa(lp6462
F0
aF0
aF0
aF0
aF0
aa(lp6463
F0
aF0
aF0
aF0
aF0
aa(lp6464
F0
aF0
aF0
aF0
aF0
aa(lp6465
F0
aF0
aF0
aF0
aF0
aa(lp6466
F0
aF0
aF0
aF0
aF0
aa(lp6467
F0
aF0
aF0
aF0
aF0
aa(lp6468
F0
aF0
aF0
aF0
aF0
aa(lp6469
F0
aF0
aF0
aF0
aF0
aa(lp6470
F0
aF0
aF0
aF0
aF0
aa(lp6471
F0
aF0
aF0
aF0
aF0
aa(lp6472
F0
aF0
aF0
aF0
aF0
aa(lp6473
F0
aF0
aF0
aF0
aF0
aa(lp6474
F0
aF0
aF0
aF0
aF0
aa(lp6475
F0
aF0
aF0
aF0
aF0
aa(lp6476
F0
aF0
aF0
aF0
aF0
aa(lp6477
F0
aF0
aF0
aF0
aF0
aa(lp6478
F0
aF0
aF0
aF0
aF0
aa(lp6479
F0
aF0
aF0
aF0
aF0
aa(lp6480
F0
aF0
aF0
aF0
aF0
aa(lp6481
F0
aF0
aF0
aF0
aF0
aa(lp6482
F0
aF0
aF0
aF0
aF0
aa(lp6483
F0
aF0
aF0
aF0
aF0
aa(lp6484
F0
aF0
aF0
aF0
aF0
aa(lp6485
F0
aF0
aF0
aF0
aF0
aa(lp6486
F0
aF0
aF0
aF0
aF0
aa(lp6487
F0
aF0
aF0
aF0
aF0
aa(lp6488
F0
aF0
aF0
aF0
aF0
aa(lp6489
F0
aF0
aF0
aF0
aF0
aa(lp6490
F0
aF0
aF0
aF0
aF0
aa(lp6491
F0
aF0
aF0
aF0
aF0
aa(lp6492
F0
aF0
aF0
aF0
aF0
aa(lp6493
F0
aF0
aF0
aF0
aF0
aa(lp6494
F0
aF0
aF0
aF0
aF0
aa(lp6495
F0
aF0
aF0
aF0
aF0
aa(lp6496
F0
aF0
aF0
aF0
aF0
aa(lp6497
F0
aF0
aF0
aF0
aF0
aa(lp6498
F0
aF0
aF0
aF0
aF0
aa(lp6499
F0
aF0
aF0
aF0
aF0
aa(lp6500
F0
aF0
aF0
aF0
aF0
aa(lp6501
F0
aF0
aF0
aF0
aF0
aa(lp6502
F0
aF0
aF0
aF0
aF0
aa(lp6503
F0
aF0
aF0
aF0
aF0
aa(lp6504
F0
aF0
aF0
aF0
aF0
aa(lp6505
F0
aF0
aF0
aF0
aF0
aa(lp6506
F0
aF0
aF0
aF0
aF0
aa(lp6507
F0
aF0
aF0
aF0
aF0
aa(lp6508
F0
aF0
aF0
aF0
aF0
aa(lp6509
F0
aF0
aF0
aF0
aF0
aa(lp6510
F0
aF0
aF0
aF0
aF0
aa(lp6511
F0
aF0
aF0
aF0
aF0
aa(lp6512
F0
aF0
aF0
aF0
aF0
aa(lp6513
F0
aF0
aF0
aF0
aF0
aa(lp6514
F0
aF0
aF0
aF0
aF0
aa(lp6515
F0
aF0
aF0
aF0
aF0
aa(lp6516
F0
aF0
aF0
aF0
aF0
aa(lp6517
F0
aF0
aF0
aF0
aF0
aa(lp6518
F0
aF0
aF0
aF0
aF0
aa(lp6519
F0
aF0
aF0
aF0
aF0
aa(lp6520
F0
aF0
aF0
aF0
aF0
aa(lp6521
F0
aF0
aF0
aF0
aF0
aa(lp6522
F0
aF0
aF0
aF0
aF0
aa(lp6523
F0
aF0
aF0
aF0
aF0
aa(lp6524
F0
aF0
aF0
aF0
aF0
aa(lp6525
F0
aF0
aF0
aF0
aF0
aa(lp6526
F0
aF0
aF0
aF0
aF0
aaa(lp6527
(lp6528
F0
aF0
aF0
aF0
aF0
aa(lp6529
F0
aF0
aF0
aF0
aF0
aa(lp6530
F0
aF0
aF0
aF0
aF0
aa(lp6531
F0
aF0
aF0
aF0
aF0
aa(lp6532
F0
aF0
aF0
aF0
aF0
aa(lp6533
F0
aF0
aF0
aF0
aF0
aa(lp6534
F0
aF0
aF0
aF0
aF0
aa(lp6535
F0
aF0
aF0
aF0
aF0
aa(lp6536
F0
aF0
aF0
aF0
aF0
aa(lp6537
F0
aF0
aF0
aF0
aF0
aa(lp6538
F0
aF0
aF0
aF0
aF0
aa(lp6539
F0
aF0
aF0
aF0
aF0
aa(lp6540
F0
aF0
aF0
aF0
aF0
aa(lp6541
F0
aF0
aF0
aF0
aF0
aa(lp6542
F0
aF0
aF0
aF0
aF0
aa(lp6543
F0
aF0
aF0
aF0
aF0
aa(lp6544
F0
aF0
aF0
aF0
aF0
aa(lp6545
F0
aF0
aF0
aF0
aF0
aa(lp6546
F0
aF0
aF0
aF0
aF0
aa(lp6547
F0
aF0
aF0
aF0
aF0
aa(lp6548
F0
aF0
aF0
aF0
aF0
aa(lp6549
F0
aF0
aF0
aF0
aF0
aa(lp6550
F0
aF0
aF0
aF0
aF0
aa(lp6551
F0
aF0
aF0
aF0
aF0
aa(lp6552
F0
aF0
aF0
aF0
aF0
aa(lp6553
F0
aF0
aF0
aF0
aF0
aa(lp6554
F0
aF0
aF0
aF0
aF0
aa(lp6555
F0
aF0
aF0
aF0
aF0
aa(lp6556
F0
aF0
aF0
aF0
aF0
aa(lp6557
F0
aF0
aF0
aF0
aF0
aa(lp6558
F0
aF0
aF0
aF0
aF0
aa(lp6559
F0
aF0
aF0
aF0
aF0
aa(lp6560
F0
aF0
aF0
aF0
aF0
aa(lp6561
F0
aF0
aF0
aF0
aF0
aa(lp6562
F0
aF0
aF0
aF0
aF0
aa(lp6563
F1
aF1
aF0
aF1
aF0
aa(lp6564
F0
aF0
aF0
aF0
aF0
aa(lp6565
F0
aF0
aF0
aF0
aF0
aa(lp6566
F0
aF0
aF0
aF0
aF0
aa(lp6567
F0
aF0
aF0
aF0
aF0
aa(lp6568
F0
aF0
aF0
aF0
aF0
aa(lp6569
F0
aF0
aF0
aF0
aF0
aa(lp6570
F0
aF0
aF0
aF0
aF0
aa(lp6571
F0
aF0
aF0
aF0
aF0
aa(lp6572
F0
aF0
aF0
aF0
aF0
aa(lp6573
F0
aF0
aF0
aF0
aF0
aa(lp6574
F0
aF0
aF0
aF0
aF0
aa(lp6575
F0
aF0
aF0
aF0
aF0
aa(lp6576
F0
aF0
aF0
aF0
aF0
aa(lp6577
F0
aF0
aF0
aF0
aF0
aa(lp6578
F0
aF0
aF0
aF0
aF0
aa(lp6579
F0
aF0
aF0
aF0
aF0
aa(lp6580
F0
aF0
aF0
aF0
aF0
aa(lp6581
F0
aF0
aF0
aF0
aF0
aa(lp6582
F0
aF0
aF0
aF0
aF0
aa(lp6583
F0
aF0
aF0
aF0
aF0
aa(lp6584
F0
aF0
aF0
aF0
aF0
aa(lp6585
F0
aF0
aF0
aF0
aF0
aa(lp6586
F0
aF0
aF0
aF0
aF0
aa(lp6587
F0
aF0
aF0
aF0
aF0
aa(lp6588
F0
aF0
aF0
aF0
aF0
aa(lp6589
F0
aF0
aF0
aF0
aF0
aa(lp6590
F0
aF0
aF0
aF0
aF0
aa(lp6591
F0
aF0
aF0
aF0
aF0
aa(lp6592
F0
aF0
aF0
aF0
aF0
aa(lp6593
F0
aF0
aF0
aF0
aF0
aa(lp6594
F0
aF0
aF0
aF0
aF0
aa(lp6595
F0
aF0
aF0
aF0
aF0
aa(lp6596
F0
aF0
aF0
aF0
aF0
aa(lp6597
F0
aF0
aF0
aF0
aF0
aa(lp6598
F0
aF0
aF0
aF0
aF0
aa(lp6599
F0
aF0
aF0
aF0
aF0
aa(lp6600
F0
aF0
aF0
aF0
aF0
aa(lp6601
F0
aF0
aF0
aF0
aF0
aa(lp6602
F0
aF0
aF0
aF0
aF0
aa(lp6603
F0
aF0
aF0
aF0
aF0
aa(lp6604
F0
aF0
aF0
aF0
aF0
aa(lp6605
F0
aF0
aF0
aF0
aF0
aa(lp6606
F0
aF0
aF0
aF0
aF0
aa(lp6607
F0
aF0
aF0
aF0
aF0
aa(lp6608
F0
aF0
aF0
aF0
aF0
aa(lp6609
F0
aF0
aF0
aF0
aF0
aa(lp6610
F0
aF0
aF0
aF0
aF0
aa(lp6611
F0
aF0
aF0
aF0
aF0
aa(lp6612
F0
aF0
aF0
aF0
aF0
aa(lp6613
F0
aF0
aF0
aF0
aF0
aaa(lp6614
(lp6615
F0
aF0
aF0
aF0
aF0
aa(lp6616
F0
aF0
aF0
aF0
aF0
aa(lp6617
F0
aF0
aF0
aF0
aF0
aa(lp6618
F0
aF0
aF0
aF0
aF0
aa(lp6619
F0
aF0
aF0
aF0
aF0
aa(lp6620
F0
aF0
aF0
aF0
aF0
aa(lp6621
F0
aF0
aF0
aF0
aF0
aa(lp6622
F0
aF0
aF0
aF0
aF0
aa(lp6623
F0
aF0
aF0
aF0
aF0
aa(lp6624
F0
aF0
aF0
aF0
aF0
aa(lp6625
F0
aF0
aF0
aF0
aF0
aa(lp6626
F1
aF0
aF0
aF1
aF0
aa(lp6627
F0
aF0
aF0
aF0
aF0
aa(lp6628
F0
aF0
aF0
aF0
aF0
aa(lp6629
F0
aF0
aF0
aF0
aF0
aa(lp6630
F0
aF0
aF0
aF0
aF0
aa(lp6631
F0
aF0
aF0
aF0
aF0
aa(lp6632
F0
aF0
aF0
aF0
aF0
aa(lp6633
F0
aF0
aF0
aF0
aF0
aa(lp6634
F0
aF0
aF0
aF0
aF0
aa(lp6635
F0
aF0
aF0
aF0
aF0
aa(lp6636
F0
aF0
aF0
aF0
aF0
aa(lp6637
F0
aF0
aF0
aF0
aF0
aa(lp6638
F0
aF0
aF0
aF0
aF0
aa(lp6639
F0
aF0
aF0
aF0
aF0
aa(lp6640
F0
aF0
aF0
aF0
aF0
aa(lp6641
F0
aF0
aF0
aF0
aF0
aa(lp6642
F0
aF0
aF0
aF0
aF0
aa(lp6643
F0
aF0
aF0
aF0
aF0
aa(lp6644
F0
aF0
aF0
aF0
aF0
aa(lp6645
F0
aF0
aF0
aF0
aF0
aa(lp6646
F0
aF0
aF0
aF0
aF0
aa(lp6647
F0
aF0
aF0
aF0
aF0
aa(lp6648
F0
aF0
aF0
aF0
aF0
aa(lp6649
F0
aF0
aF0
aF0
aF0
aa(lp6650
F0
aF0
aF0
aF0
aF0
aa(lp6651
F0
aF0
aF0
aF0
aF0
aa(lp6652
F0
aF0
aF0
aF0
aF0
aa(lp6653
F0
aF0
aF0
aF0
aF0
aa(lp6654
F0
aF0
aF0
aF0
aF0
aa(lp6655
F0
aF0
aF0
aF0
aF0
aa(lp6656
F0
aF0
aF0
aF0
aF0
aa(lp6657
F0
aF0
aF0
aF0
aF0
aa(lp6658
F0
aF0
aF0
aF0
aF0
aa(lp6659
F0
aF0
aF0
aF0
aF0
aa(lp6660
F0
aF0
aF0
aF0
aF0
aa(lp6661
F0
aF0
aF0
aF0
aF0
aa(lp6662
F0
aF0
aF0
aF0
aF0
aa(lp6663
F0
aF0
aF0
aF0
aF0
aa(lp6664
F0
aF0
aF0
aF0
aF0
aa(lp6665
F0
aF0
aF0
aF0
aF0
aa(lp6666
F0
aF0
aF0
aF0
aF0
aa(lp6667
F0
aF0
aF0
aF0
aF0
aa(lp6668
F0
aF0
aF0
aF0
aF0
aa(lp6669
F0
aF0
aF0
aF0
aF0
aa(lp6670
F0
aF0
aF0
aF0
aF0
aa(lp6671
F0
aF0
aF0
aF0
aF0
aa(lp6672
F0
aF0
aF0
aF0
aF0
aa(lp6673
F0
aF0
aF0
aF0
aF0
aa(lp6674
F0
aF0
aF0
aF0
aF0
aa(lp6675
F0
aF0
aF0
aF0
aF0
aa(lp6676
F0
aF0
aF0
aF0
aF0
aa(lp6677
F0
aF0
aF0
aF0
aF0
aa(lp6678
F0
aF0
aF0
aF0
aF0
aa(lp6679
F0
aF0
aF0
aF0
aF0
aa(lp6680
F0
aF0
aF0
aF0
aF0
aa(lp6681
F0
aF0
aF0
aF0
aF0
aa(lp6682
F0
aF0
aF0
aF0
aF0
aa(lp6683
F0
aF0
aF0
aF0
aF0
aa(lp6684
F0
aF0
aF0
aF0
aF0
aa(lp6685
F0
aF0
aF0
aF0
aF0
aa(lp6686
F0
aF0
aF0
aF0
aF0
aa(lp6687
F0
aF0
aF0
aF0
aF0
aa(lp6688
F0
aF0
aF0
aF0
aF0
aa(lp6689
F0
aF0
aF0
aF0
aF0
aa(lp6690
F0
aF0
aF0
aF0
aF0
aa(lp6691
F0
aF0
aF0
aF0
aF0
aa(lp6692
F0
aF0
aF0
aF0
aF0
aa(lp6693
F0
aF0
aF0
aF0
aF0
aa(lp6694
F0
aF0
aF0
aF0
aF0
aa(lp6695
F0
aF0
aF0
aF0
aF0
aa(lp6696
F0
aF0
aF0
aF0
aF0
aa(lp6697
F0
aF0
aF0
aF0
aF0
aa(lp6698
F0
aF0
aF0
aF0
aF0
aa(lp6699
F0
aF0
aF0
aF0
aF0
aa(lp6700
F0
aF0
aF0
aF0
aF0
aaa(lp6701
(lp6702
F0
aF0
aF0
aF0
aF0
aa(lp6703
F0
aF0
aF0
aF0
aF0
aa(lp6704
F0
aF0
aF0
aF0
aF0
aa(lp6705
F0
aF0
aF0
aF0
aF0
aa(lp6706
F0
aF0
aF0
aF0
aF0
aa(lp6707
F0
aF0
aF0
aF0
aF0
aa(lp6708
F0
aF0
aF0
aF0
aF0
aa(lp6709
F0
aF0
aF0
aF0
aF0
aa(lp6710
F0
aF0
aF0
aF0
aF0
aa(lp6711
F0
aF0
aF0
aF0
aF0
aa(lp6712
F0
aF0
aF0
aF0
aF0
aa(lp6713
F0
aF0
aF0
aF0
aF0
aa(lp6714
F0
aF0
aF0
aF0
aF0
aa(lp6715
F0
aF0
aF0
aF0
aF0
aa(lp6716
F0
aF0
aF0
aF0
aF0
aa(lp6717
F0
aF0
aF0
aF0
aF0
aa(lp6718
F0
aF0
aF0
aF0
aF0
aa(lp6719
F0
aF0
aF0
aF0
aF0
aa(lp6720
F0
aF0
aF0
aF0
aF0
aa(lp6721
F0
aF0
aF0
aF0
aF0
aa(lp6722
F0
aF0
aF0
aF0
aF0
aa(lp6723
F0
aF0
aF0
aF0
aF0
aa(lp6724
F0
aF0
aF0
aF0
aF0
aa(lp6725
F0
aF0
aF0
aF0
aF0
aa(lp6726
F0
aF0
aF0
aF0
aF0
aa(lp6727
F0
aF0
aF0
aF0
aF0
aa(lp6728
F0
aF0
aF0
aF0
aF0
aa(lp6729
F0
aF0
aF0
aF0
aF0
aa(lp6730
F0
aF0
aF0
aF0
aF0
aa(lp6731
F0
aF0
aF0
aF0
aF0
aa(lp6732
F0
aF0
aF0
aF0
aF0
aa(lp6733
F0
aF0
aF0
aF0
aF0
aa(lp6734
F0
aF0
aF0
aF0
aF0
aa(lp6735
F0
aF0
aF0
aF0
aF0
aa(lp6736
F0
aF0
aF0
aF0
aF0
aa(lp6737
F1
aF1
aF0
aF1
aF0
aa(lp6738
F0
aF0
aF0
aF0
aF0
aa(lp6739
F0
aF0
aF0
aF0
aF0
aa(lp6740
F0
aF0
aF0
aF0
aF0
aa(lp6741
F0
aF0
aF0
aF0
aF0
aa(lp6742
F0
aF0
aF0
aF0
aF0
aa(lp6743
F0
aF0
aF0
aF0
aF0
aa(lp6744
F0
aF0
aF0
aF0
aF0
aa(lp6745
F0
aF0
aF0
aF0
aF0
aa(lp6746
F0
aF0
aF0
aF0
aF0
aa(lp6747
F0
aF0
aF0
aF0
aF0
aa(lp6748
F0
aF0
aF0
aF0
aF0
aa(lp6749
F0
aF0
aF0
aF0
aF0
aa(lp6750
F0
aF0
aF0
aF0
aF0
aa(lp6751
F0
aF0
aF0
aF0
aF0
aa(lp6752
F0
aF0
aF0
aF0
aF0
aa(lp6753
F0
aF0
aF0
aF0
aF0
aa(lp6754
F0
aF0
aF0
aF0
aF0
aa(lp6755
F0
aF0
aF0
aF0
aF0
aa(lp6756
F0
aF0
aF0
aF0
aF0
aa(lp6757
F0
aF0
aF0
aF0
aF0
aa(lp6758
F0
aF0
aF0
aF0
aF0
aa(lp6759
F0
aF0
aF0
aF0
aF0
aa(lp6760
F0
aF0
aF0
aF0
aF0
aa(lp6761
F0
aF0
aF0
aF0
aF0
aa(lp6762
F0
aF0
aF0
aF0
aF0
aa(lp6763
F0
aF0
aF0
aF0
aF0
aa(lp6764
F0
aF0
aF0
aF0
aF0
aa(lp6765
F0
aF0
aF0
aF0
aF0
aa(lp6766
F0
aF0
aF0
aF0
aF0
aa(lp6767
F0
aF0
aF0
aF0
aF0
aa(lp6768
F0
aF0
aF0
aF0
aF0
aa(lp6769
F0
aF0
aF0
aF0
aF0
aa(lp6770
F0
aF0
aF0
aF0
aF0
aa(lp6771
F0
aF0
aF0
aF0
aF0
aa(lp6772
F0
aF0
aF0
aF0
aF0
aa(lp6773
F0
aF0
aF0
aF0
aF0
aa(lp6774
F0
aF0
aF0
aF0
aF0
aa(lp6775
F0
aF0
aF0
aF0
aF0
aa(lp6776
F0
aF0
aF0
aF0
aF0
aa(lp6777
F0
aF0
aF0
aF0
aF0
aa(lp6778
F0
aF0
aF0
aF0
aF0
aa(lp6779
F0
aF0
aF0
aF0
aF0
aa(lp6780
F0
aF0
aF0
aF0
aF0
aa(lp6781
F0
aF0
aF0
aF0
aF0
aa(lp6782
F0
aF0
aF0
aF0
aF0
aa(lp6783
F0
aF0
aF0
aF0
aF0
aa(lp6784
F0
aF0
aF0
aF0
aF0
aa(lp6785
F0
aF0
aF0
aF0
aF0
aa(lp6786
F0
aF0
aF0
aF0
aF0
aa(lp6787
F0
aF0
aF0
aF0
aF0
aaa(lp6788
(lp6789
F0
aF0
aF0
aF0
aF0
aa(lp6790
F0
aF0
aF0
aF0
aF0
aa(lp6791
F0
aF0
aF0
aF0
aF0
aa(lp6792
F0
aF0
aF0
aF0
aF0
aa(lp6793
F0
aF0
aF0
aF0
aF0
aa(lp6794
F0
aF0
aF0
aF0
aF0
aa(lp6795
F0
aF0
aF0
aF0
aF0
aa(lp6796
F0
aF0
aF0
aF0
aF0
aa(lp6797
F0
aF0
aF0
aF0
aF0
aa(lp6798
F0
aF0
aF0
aF0
aF0
aa(lp6799
F0
aF0
aF0
aF0
aF0
aa(lp6800
F0
aF0
aF0
aF0
aF0
aa(lp6801
F0
aF0
aF0
aF0
aF0
aa(lp6802
F0
aF0
aF0
aF0
aF0
aa(lp6803
F0
aF0
aF0
aF0
aF0
aa(lp6804
F0
aF0
aF0
aF0
aF0
aa(lp6805
F0
aF0
aF0
aF0
aF0
aa(lp6806
F0
aF0
aF0
aF0
aF0
aa(lp6807
F0
aF0
aF0
aF0
aF0
aa(lp6808
F0
aF0
aF0
aF0
aF0
aa(lp6809
F0
aF0
aF0
aF0
aF0
aa(lp6810
F0
aF0
aF0
aF0
aF0
aa(lp6811
F0
aF0
aF0
aF0
aF0
aa(lp6812
F0
aF0
aF0
aF0
aF0
aa(lp6813
F0
aF0
aF0
aF0
aF0
aa(lp6814
F0
aF0
aF0
aF0
aF0
aa(lp6815
F0
aF0
aF0
aF0
aF0
aa(lp6816
F0
aF0
aF0
aF0
aF0
aa(lp6817
F0
aF0
aF0
aF0
aF0
aa(lp6818
F0
aF0
aF0
aF0
aF0
aa(lp6819
F1
aF1
aF0
aF1
aF0
aa(lp6820
F0
aF0
aF0
aF0
aF0
aa(lp6821
F0
aF0
aF0
aF0
aF0
aa(lp6822
F0
aF0
aF0
aF0
aF0
aa(lp6823
F0
aF0
aF0
aF0
aF0
aa(lp6824
F0
aF0
aF0
aF0
aF0
aa(lp6825
F0
aF0
aF0
aF0
aF0
aa(lp6826
F0
aF0
aF0
aF0
aF0
aa(lp6827
F0
aF0
aF0
aF0
aF0
aa(lp6828
F0
aF0
aF0
aF0
aF0
aa(lp6829
F0
aF0
aF0
aF0
aF0
aa(lp6830
F0
aF0
aF0
aF0
aF0
aa(lp6831
F0
aF0
aF0
aF0
aF0
aa(lp6832
F0
aF0
aF0
aF0
aF0
aa(lp6833
F0
aF0
aF0
aF0
aF0
aa(lp6834
F0
aF0
aF0
aF0
aF0
aa(lp6835
F0
aF0
aF0
aF0
aF0
aa(lp6836
F0
aF0
aF0
aF0
aF0
aa(lp6837
F0
aF0
aF0
aF0
aF0
aa(lp6838
F0
aF0
aF0
aF0
aF0
aa(lp6839
F0
aF0
aF0
aF0
aF0
aa(lp6840
F0
aF0
aF0
aF0
aF0
aa(lp6841
F0
aF0
aF0
aF0
aF0
aa(lp6842
F0
aF0
aF0
aF0
aF0
aa(lp6843
F0
aF0
aF0
aF0
aF0
aa(lp6844
F0
aF0
aF0
aF0
aF0
aa(lp6845
F0
aF0
aF0
aF0
aF0
aa(lp6846
F0
aF0
aF0
aF0
aF0
aa(lp6847
F0
aF0
aF0
aF0
aF0
aa(lp6848
F0
aF0
aF0
aF0
aF0
aa(lp6849
F0
aF0
aF0
aF0
aF0
aa(lp6850
F0
aF0
aF0
aF0
aF0
aa(lp6851
F0
aF0
aF0
aF0
aF0
aa(lp6852
F0
aF0
aF0
aF0
aF0
aa(lp6853
F0
aF0
aF0
aF0
aF0
aa(lp6854
F0
aF0
aF0
aF0
aF0
aa(lp6855
F0
aF0
aF0
aF0
aF0
aa(lp6856
F0
aF0
aF0
aF0
aF0
aa(lp6857
F0
aF0
aF0
aF0
aF0
aa(lp6858
F0
aF0
aF0
aF0
aF0
aa(lp6859
F0
aF0
aF0
aF0
aF0
aa(lp6860
F0
aF0
aF0
aF0
aF0
aa(lp6861
F0
aF0
aF0
aF0
aF0
aa(lp6862
F0
aF0
aF0
aF0
aF0
aa(lp6863
F0
aF0
aF0
aF0
aF0
aa(lp6864
F0
aF0
aF0
aF0
aF0
aa(lp6865
F0
aF0
aF0
aF0
aF0
aa(lp6866
F0
aF0
aF0
aF0
aF0
aa(lp6867
F0
aF0
aF0
aF0
aF0
aa(lp6868
F0
aF0
aF0
aF0
aF0
aa(lp6869
F0
aF0
aF0
aF0
aF0
aa(lp6870
F0
aF0
aF0
aF0
aF0
aa(lp6871
F0
aF0
aF0
aF0
aF0
aa(lp6872
F0
aF0
aF0
aF0
aF0
aa(lp6873
F0
aF0
aF0
aF0
aF0
aa(lp6874
F0
aF0
aF0
aF0
aF0
aaa.